
 Start  Stop   Length Name               Class

 00000H 059A9H 059AAH _TEXT              CODE
 059AAH 06CC2H 01319H BOX_TEXT           CODE
 06CC3H 09D0DH 0304BH LIST_TEXT          CODE
 09D0EH 0C265H 02558H MAIN_TEXT          CODE
 0C266H 0C634H 003CFH BUFRW_TEXT         CODE
 0C635H 0D655H 01021H FTYPE_TEXT         CODE
 0D656H 1241DH 04DC8H GMENU_TEXT         CODE
 1241EH 15B66H 03749H GRAPHLIB_TEXT      CODE
 15B67H 19020H 034BAH GRVIEW_TEXT        CODE
 19021H 19215H 001F5H HALFRW_TEXT        CODE
 19216H 1A10EH 00EF9H HELP_TEXT          CODE
 1A10FH 1B776H 01668H LISTDIR_TEXT       CODE
 1B777H 1C3FDH 00C87H PCX_TEXT           CODE
 1C3FEH 1CA6AH 0066DH PROTECT_TEXT       CODE
 1CA6BH 1D5CCH 00B62H TEXTSCR_TEXT       CODE
 1D5CDH 1DA70H 004A4H THART_TEXT         CODE
 1DA71H 1E08CH 0061CH UTIL_TEXT          CODE
 1E08DH 1EBDFH 00B53H UTILRW_TEXT        CODE
 1EBE0H 22859H 03C7AH _BGI_TEXT          CODE
 22860H 22E27H 005C8H E87_PROG           CODE
 22E30H 22E30H 00000H _FARDATA           FAR_DATA
 22E30H 22E30H 00000H _FARBSS            FAR_BSS
 22E30H 22E30H 00000H _OVERLAY_          OVRINFO
 22E30H 22E30H 00000H _1STUB_            STUBSEG
 22E30H 26B15H 03CE6H _DATA              DATA
 26B16H 26B19H 00004H _CVTSEG            DATA
 26B1AH 26B25H 0000CH _SCNSEG            DATA
 26B26H 26B26H 00000H GRAPH              DATA
 26B26H 26B26H 00000H _CONST             CONST
 26B26H 26B5BH 00036H _INIT_             INITDATA
 26B5CH 26B5CH 00000H _INITEND_          INITDATA
 26B5CH 26B6DH 00012H _EXIT_             EXITDATA
 26B6EH 26B6EH 00000H _EXITEND_          EXITDATA
 26B6EH 26F25H 003B8H _BSS               BSS
 26F26H 26F26H 00000H _BSSEND            BSSEND
 26F30H 2703FH 00110H _STACK             STACK


Detailed map of segments

 0000:0000 0295 C=CODE   S=_TEXT          G=(none)  M=c0.ASM     ACBP=28
 0000:0295 020E C=CODE   S=_TEXT          G=(none)  M=FP87INIT   ACBP=28
 0000:04A3 0000 C=CODE   S=_TEXT          G=(none)  M=E87TRAP    ACBP=28
 0000:04A3 0000 C=CODE   S=_TEXT          G=(none)  M=PROTFLAG   ACBP=28
 0000:04A3 0000 C=CODE   S=_TEXT          G=(none)  M=DEFLT87    ACBP=28
 0000:04A3 0000 C=CODE   S=_TEXT          G=(none)  M=HUGEVAL    ACBP=28
 0000:04A3 009A C=CODE   S=_TEXT          G=(none)  M=LDTRUNC    ACBP=28
 0000:053D 01BD C=CODE   S=_TEXT          G=(none)  M=REALCVT    ACBP=28
 0000:06FA 0395 C=CODE   S=_TEXT          G=(none)  M=SCANTOD    ACBP=28
 0000:0A8F 020C C=CODE   S=_TEXT          G=(none)  M=XCVT       ACBP=28
 0000:0C9B 00B1 C=CODE   S=_TEXT          G=(none)  M=FPERR      ACBP=28
 0000:0D4C 00C9 C=CODE   S=_TEXT          G=(none)  M=_POW10     ACBP=28
 0000:0E15 000B C=CODE   S=_TEXT          G=(none)  M=POW10D     ACBP=28
 0000:0E20 002C C=CODE   S=_TEXT          G=(none)  M=FFTOL      ACBP=28
 0000:0E4C 002D C=CODE   S=_TEXT          G=(none)  M=ATEXIT     ACBP=28
 0000:0E79 004E C=CODE   S=_TEXT          G=(none)  M=CHDRIVE    ACBP=28
 0000:0EC7 0000 C=CODE   S=_TEXT          G=(none)  M=CTYPE      ACBP=28
 0000:0EC7 0012 C=CODE   S=_TEXT          G=(none)  M=DEL        ACBP=28
 0000:0ED9 003D C=CODE   S=_TEXT          G=(none)  M=DOSFATTR   ACBP=28
 0000:0F16 0028 C=CODE   S=_TEXT          G=(none)  M=DOSGDRIV   ACBP=28
 0000:0F3E 0025 C=CODE   S=_TEXT          G=(none)  M=ERRORMSG   ACBP=28
 0000:0F63 0093 C=CODE   S=_TEXT          G=(none)  M=EXIT       ACBP=28
 0000:0FF6 0000 C=CODE   S=_TEXT          G=(none)  M=FILES      ACBP=28
 0000:0FF6 0000 C=CODE   S=_TEXT          G=(none)  M=FILES2     ACBP=28
 0000:0FF6 0000 C=CODE   S=_TEXT          G=(none)  M=FMODE      ACBP=28
 0000:0FF6 0000 C=CODE   S=_TEXT          G=(none)  M=FPSTKLEN   ACBP=28
 0000:0FF6 0017 C=CODE   S=_TEXT          G=(none)  M=F_LXMUL    ACBP=28
 0000:100D 001C C=CODE   S=_TEXT          G=(none)  M=F_SCOPY    ACBP=28
 0000:1029 001D C=CODE   S=_TEXT          G=(none)  M=GETCURDI   ACBP=28
 0000:1046 0026 C=CODE   S=_TEXT          G=(none)  M=GETDATE    ACBP=28
 0000:106C 0039 C=CODE   S=_TEXT          G=(none)  M=GETDISK    ACBP=28
 0000:10A5 005C C=CODE   S=_TEXT          G=(none)  M=GETFAT     ACBP=28
 0000:1101 0023 C=CODE   S=_TEXT          G=(none)  M=GETFTIME   ACBP=28
 0000:1124 0020 C=CODE   S=_TEXT          G=(none)  M=GETVECT    ACBP=28
 0000:1144 00AE C=CODE   S=_TEXT          G=(none)  M=H_LDIV     ACBP=28
 0000:11F2 0021 C=CODE   S=_TEXT          G=(none)  M=H_LLSH     ACBP=28
 0000:1213 0060 C=CODE   S=_TEXT          G=(none)  M=H_PADD     ACBP=28
 0000:1273 0028 C=CODE   S=_TEXT          G=(none)  M=H_PSBP     ACBP=28
 0000:129B 004B C=CODE   S=_TEXT          G=(none)  M=IOERROR    ACBP=28
 0000:12E6 0011 C=CODE   S=_TEXT          G=(none)  M=ISATTY     ACBP=28
 0000:12F7 00A2 C=CODE   S=_TEXT          G=(none)  M=LONGTOA    ACBP=28
 0000:1399 0029 C=CODE   S=_TEXT          G=(none)  M=LSEEK      ACBP=28
 0000:13C2 00B6 C=CODE   S=_TEXT          G=(none)  M=MKNAME     ACBP=28
 0000:1478 006C C=CODE   S=_TEXT          G=(none)  M=NEW        ACBP=28
 0000:14E4 0051 C=CODE   S=_TEXT          G=(none)  M=NEWF       ACBP=28
 0000:1535 0017 C=CODE   S=_TEXT          G=(none)  M=N_LXMUL    ACBP=28
 0000:154C 0021 C=CODE   S=_TEXT          G=(none)  M=N_PCMP     ACBP=28
 0000:156D 003C C=CODE   S=_TEXT          G=(none)  M=PUREERR    ACBP=28
 0000:15A9 002F C=CODE   S=_TEXT          G=(none)  M=READA      ACBP=28
 0000:15D8 0020 C=CODE   S=_TEXT          G=(none)  M=SEGREAD    ACBP=28
 0000:15F8 002A C=CODE   S=_TEXT          G=(none)  M=SETDATE    ACBP=28
 0000:1622 0023 C=CODE   S=_TEXT          G=(none)  M=SETFTIME   ACBP=28
 0000:1645 00BA C=CODE   S=_TEXT          G=(none)  M=SETUPIO    ACBP=28
 0000:16FF 0000 C=CODE   S=_TEXT          G=(none)  M=SIGDATA    ACBP=28
 0000:16FF 0098 C=CODE   S=_TEXT          G=(none)  M=STIME      ACBP=28
 0000:1797 0000 C=CODE   S=_TEXT          G=(none)  M=STKLEN     ACBP=28
 0000:1797 002C C=CODE   S=_TEXT          G=(none)  M=TOUPPER    ACBP=28
 0000:17C3 0018 C=CODE   S=_TEXT          G=(none)  M=UNLINK     ACBP=28
 0000:17DB 027D C=CODE   S=_TEXT          G=(none)  M=VDELF      ACBP=28
 0000:1A58 0298 C=CODE   S=_TEXT          G=(none)  M=VNEWF      ACBP=28
 0000:1CF0 04DB C=CODE   S=_TEXT          G=(none)  M=VPRINTER   ACBP=28
 0000:21CB 009F C=CODE   S=_TEXT          G=(none)  M=VRAM       ACBP=28
 0000:226A 0000 C=CODE   S=_TEXT          G=(none)  M=WSCROLL    ACBP=28
 0000:226A 0034 C=CODE   S=_TEXT          G=(none)  M=_STPCPY    ACBP=28
 0000:229E 0120 C=CODE   S=_TEXT          G=(none)  M=ABSREAD    ACBP=28
 0000:23BE 0025 C=CODE   S=_TEXT          G=(none)  M=BIOSKEY    ACBP=28
 0000:23E3 0014 C=CODE   S=_TEXT          G=(none)  M=BIOSPRIN   ACBP=28
 0000:23F7 0029 C=CODE   S=_TEXT          G=(none)  M=CLRSCR     ACBP=28
 0000:2420 004C C=CODE   S=_TEXT          G=(none)  M=COLOR      ACBP=28
 0000:246C 0006 C=CODE   S=_TEXT          G=(none)  M=CORELEFT   ACBP=28
 0000:2472 014E C=CODE   S=_TEXT          G=(none)  M=CPRINTF    ACBP=28
 0000:25C0 01A5 C=CODE   S=_TEXT          G=(none)  M=CRTINIT    ACBP=28
 0000:2765 001F C=CODE   S=_TEXT          G=(none)  M=CVTFAK     ACBP=28
 0000:2784 009D C=CODE   S=_TEXT          G=(none)  M=DELAY      ACBP=28
 0000:2821 0432 C=CODE   S=_TEXT          G=(none)  M=FARHEAP    ACBP=28
 0000:2C53 0140 C=CODE   S=_TEXT          G=(none)  M=FBRK       ACBP=28
 0000:2D93 0050 C=CODE   S=_TEXT          G=(none)  M=FCORELFT   ACBP=28
 0000:2DE3 005E C=CODE   S=_TEXT          G=(none)  M=GETCH      ACBP=28
 0000:2E41 000E C=CODE   S=_TEXT          G=(none)  M=GEXIT      ACBP=28
 0000:2E4F 0012 C=CODE   S=_TEXT          G=(none)  M=GFREEMEM   ACBP=28
 0000:2E61 000E C=CODE   S=_TEXT          G=(none)  M=GGETMEM    ACBP=28
 0000:2E6F 0049 C=CODE   S=_TEXT          G=(none)  M=GOTOXY     ACBP=28
 0000:2EB8 00AC C=CODE   S=_TEXT          G=(none)  M=GPTEXT     ACBP=28
 0000:2F64 002E C=CODE   S=_TEXT          G=(none)  M=HARD       ACBP=28
 0000:2F92 0126 C=CODE   S=_TEXT          G=(none)  M=HARDERR    ACBP=28
 0000:30B8 00CA C=CODE   S=_TEXT          G=(none)  M=INT86      ACBP=28
 0000:3182 0029 C=CODE   S=_TEXT          G=(none)  M=IOCTL      ACBP=28
 0000:31AB 0012 C=CODE   S=_TEXT          G=(none)  M=KBHIT      ACBP=28
 0000:31BD 009D C=CODE   S=_TEXT          G=(none)  M=MOVETEXT   ACBP=28
 0000:325A 0017 C=CODE   S=_TEXT          G=(none)  M=PUTCH      ACBP=28
 0000:3271 0004 C=CODE   S=_TEXT          G=(none)  M=REALCVT    ACBP=28
 0000:3275 01C7 C=CODE   S=_TEXT          G=(none)  M=SCREEN     ACBP=28
 0000:343C 018E C=CODE   S=_TEXT          G=(none)  M=SCROLL     ACBP=28
 0000:35CA 012B C=CODE   S=_TEXT          G=(none)  M=SETARGV    ACBP=28
 0000:36F5 001C C=CODE   S=_TEXT          G=(none)  M=SETBLOCK   ACBP=28
 0000:3711 0058 C=CODE   S=_TEXT          G=(none)  M=SETENVP    ACBP=28
 0000:3769 0033 C=CODE   S=_TEXT          G=(none)  M=SOUND      ACBP=28
 0000:379C 001F C=CODE   S=_TEXT          G=(none)  M=TEXTMODE   ACBP=28
 0000:37BB 002C C=CODE   S=_TEXT          G=(none)  M=WHEREXY    ACBP=28
 0000:37E7 0086 C=CODE   S=_TEXT          G=(none)  M=ATOL       ACBP=28
 0000:386D 0010 C=CODE   S=_TEXT          G=(none)  M=BDOS       ACBP=28
 0000:387D 001D C=CODE   S=_TEXT          G=(none)  M=CHMODA     ACBP=28
 0000:389A 0028 C=CODE   S=_TEXT          G=(none)  M=CLOSE      ACBP=28
 0000:38C2 001E C=CODE   S=_TEXT          G=(none)  M=CLOSEA     ACBP=28
 0000:38E0 007B C=CODE   S=_TEXT          G=(none)  M=CREATA     ACBP=28
 0000:395B 0077 C=CODE   S=_TEXT          G=(none)  M=EOF        ACBP=28
 0000:39D2 00B8 C=CODE   S=_TEXT          G=(none)  M=FCLOSE     ACBP=28
 0000:3A8A 00CD C=CODE   S=_TEXT          G=(none)  M=FFLUSH     ACBP=28
 0000:3B57 009C C=CODE   S=_TEXT          G=(none)  M=FGETS      ACBP=28
 0000:3BF3 0060 C=CODE   S=_TEXT          G=(none)  M=FINDFIRS   ACBP=28
 0000:3C53 0041 C=CODE   S=_TEXT          G=(none)  M=FLENGTH    ACBP=28
 0000:3C94 0042 C=CODE   S=_TEXT          G=(none)  M=FLUSHALL   ACBP=28
 0000:3CD6 020C C=CODE   S=_TEXT          G=(none)  M=FOPEN      ACBP=28
 0000:3EE2 001C C=CODE   S=_TEXT          G=(none)  M=FPRINTF    ACBP=28
 0000:3EFE 0182 C=CODE   S=_TEXT          G=(none)  M=FREAD      ACBP=28
 0000:4080 01E2 C=CODE   S=_TEXT          G=(none)  M=FSEEK      ACBP=28
 0000:4262 008B C=CODE   S=_TEXT          G=(none)  M=FWRITE     ACBP=28
 0000:42ED 01C8 C=CODE   S=_TEXT          G=(none)  M=GETC       ACBP=28
 0000:44B5 008E C=CODE   S=_TEXT          G=(none)  M=GETCWD     ACBP=28
 0000:4543 009F C=CODE   S=_TEXT          G=(none)  M=GETDCWD    ACBP=28
 0000:45E2 0070 C=CODE   S=_TEXT          G=(none)  M=GETENV     ACBP=28
 0000:4652 0070 C=CODE   S=_TEXT          G=(none)  M=LTOA1      ACBP=28
 0000:46C2 0039 C=CODE   S=_TEXT          G=(none)  M=MEMCCPY    ACBP=28
 0000:46FB 0024 C=CODE   S=_TEXT          G=(none)  M=MEMCPY     ACBP=28
 0000:471F 0043 C=CODE   S=_TEXT          G=(none)  M=MEMSET     ACBP=28
 0000:4762 0073 C=CODE   S=_TEXT          G=(none)  M=MOVMEM     ACBP=28
 0000:47D5 019C C=CODE   S=_TEXT          G=(none)  M=OPEN       ACBP=28
 0000:4971 004F C=CODE   S=_TEXT          G=(none)  M=OPENA      ACBP=28
 0000:49C0 001B C=CODE   S=_TEXT          G=(none)  M=PRINTF     ACBP=28
 0000:49DB 03C8 C=CODE   S=_TEXT          G=(none)  M=PUTC       ACBP=28
 0000:4DA3 00D1 C=CODE   S=_TEXT          G=(none)  M=READ       ACBP=28
 0000:4E74 0003 C=CODE   S=_TEXT          G=(none)  M=READU      ACBP=28
 0000:4E77 011D C=CODE   S=_TEXT          G=(none)  M=SETVBUF    ACBP=28
 0000:4F94 0083 C=CODE   S=_TEXT          G=(none)  M=SPRINTF    ACBP=28
 0000:5017 003F C=CODE   S=_TEXT          G=(none)  M=STRCAT     ACBP=28
 0000:5056 003D C=CODE   S=_TEXT          G=(none)  M=STRCHR     ACBP=28
 0000:5093 0030 C=CODE   S=_TEXT          G=(none)  M=STRCMP     ACBP=28
 0000:50C3 0029 C=CODE   S=_TEXT          G=(none)  M=STRCPY     ACBP=28
 0000:50EC 001F C=CODE   S=_TEXT          G=(none)  M=STRLEN     ACBP=28
 0000:510B 0031 C=CODE   S=_TEXT          G=(none)  M=STRNCPY    ACBP=28
 0000:513C 006E C=CODE   S=_TEXT          G=(none)  M=STRSTR     ACBP=28
 0000:51AA 032E C=CODE   S=_TEXT          G=(none)  M=TIMECVT    ACBP=28
 0000:54D8 02CD C=CODE   S=_TEXT          G=(none)  M=TZSET      ACBP=28
 0000:57A5 0151 C=CODE   S=_TEXT          G=(none)  M=WRITE      ACBP=28
 0000:58F6 003C C=CODE   S=_TEXT          G=(none)  M=WRITEA     ACBP=28
 0000:5932 0003 C=CODE   S=_TEXT          G=(none)  M=WRITEU     ACBP=28
 0000:5935 003D C=CODE   S=_TEXT          G=(none)  M=XFCLOSE    ACBP=28
 0000:5972 0038 C=CODE   S=_TEXT          G=(none)  M=XFFLUSH    ACBP=28
 059A:000A 1319 C=CODE   S=BOX_TEXT       G=(none)  M=BOX.CPP    ACBP=28
 06CC:0003 304B C=CODE   S=LIST_TEXT      G=(none)  M=LIST.CPP   ACBP=28
 09D0:000E 2558 C=CODE   S=MAIN_TEXT      G=(none)  M=MAIN.CPP   ACBP=28
 0C26:0006 03CF C=CODE   S=BUFRW_TEXT     G=(none)  M=BUFRW.C    ACBP=28
 0C63:0005 1021 C=CODE   S=FTYPE_TEXT     G=(none)  M=FTYPE.C    ACBP=28
 0D65:0006 4DC8 C=CODE   S=GMENU_TEXT     G=(none)  M=GMENU.C    ACBP=28
 1241:000E 3749 C=CODE   S=GRAPHLIB_TEXT  G=(none)  M=GRAPHLIB.C ACBP=28
 15B6:0007 34BA C=CODE   S=GRVIEW_TEXT    G=(none)  M=GRVIEW.C   ACBP=28
 1902:0001 01F5 C=CODE   S=HALFRW_TEXT    G=(none)  M=HALFRW.C   ACBP=28
 1921:0006 0EF9 C=CODE   S=HELP_TEXT      G=(none)  M=HELP.C     ACBP=28
 1A10:000F 1668 C=CODE   S=LISTDIR_TEXT   G=(none)  M=LISTDIR.C  ACBP=28
 1B77:0007 0C87 C=CODE   S=PCX_TEXT       G=(none)  M=PCX.C      ACBP=28
 1C3F:000E 066D C=CODE   S=PROTECT_TEXT   G=(none)  M=PROTECT.C  ACBP=28
 1CA6:000B 0B62 C=CODE   S=TEXTSCR_TEXT   G=(none)  M=TEXTSCR.C  ACBP=28
 1D5C:000D 04A4 C=CODE   S=THART_TEXT     G=(none)  M=THART.C    ACBP=28
 1DA7:0001 061C C=CODE   S=UTIL_TEXT      G=(none)  M=UTIL.C     ACBP=28
 1E08:000D 0B53 C=CODE   S=UTILRW_TEXT    G=(none)  M=UTILRW.C   ACBP=28
 1EBE:0000 18AA C=CODE   S=_BGI_TEXT      G=(none)  M=GRAPHC     ACBP=28
 1EBE:18AA 0A27 C=CODE   S=_BGI_TEXT      G=(none)  M=GRAPH      ACBP=28
 1EBE:22E0 199A C=CODE   S=_BGI_TEXT      G=(none)  M=BGIOVR     ACBP=68
 2286:0000 0000 C=CODE   S=E87_PROG       G=(none)  M=FP87INIT   ACBP=68
 2286:0000 03E3 C=CODE   S=E87_PROG       G=(none)  M=EMU087     ACBP=68
 2286:03F0 01D8 C=CODE   S=E87_PROG       G=(none)  M=E87TRAP    ACBP=68
 22E3:0000 0000 C=FAR_DATA S=_FARDATA       G=(none)  M=c0.ASM     ACBP=68
 22E3:0000 0000 C=FAR_BSS S=_FARBSS        G=(none)  M=c0.ASM     ACBP=68
 22E3:0000 0000 C=OVRINFO S=_OVERLAY_      G=(none)  M=c0.ASM     ACBP=68
 22E3:0000 0000 C=STUBSEG S=_1STUB_        G=(none)  M=c0.ASM     ACBP=68
 22E3:0000 0093 C=DATA   S=_DATA          G=DGROUP  M=c0.ASM     ACBP=68
 22E3:0094 01AB C=DATA   S=_DATA          G=DGROUP  M=BOX.CPP    ACBP=48
 22E3:0240 0365 C=DATA   S=_DATA          G=DGROUP  M=LIST.CPP   ACBP=48
 22E3:05A6 101D C=DATA   S=_DATA          G=DGROUP  M=MAIN.CPP   ACBP=48
 22E3:15C4 00B5 C=DATA   S=_DATA          G=DGROUP  M=BUFRW.C    ACBP=48
 22E3:167A 0154 C=DATA   S=_DATA          G=DGROUP  M=FTYPE.C    ACBP=48
 22E3:17CE 02AC C=DATA   S=_DATA          G=DGROUP  M=GMENU.C    ACBP=48
 22E3:1A7A 0869 C=DATA   S=_DATA          G=DGROUP  M=GRAPHLIB.C ACBP=48
 22E3:22E4 025F C=DATA   S=_DATA          G=DGROUP  M=GRVIEW.C   ACBP=48
 22E3:2544 0000 C=DATA   S=_DATA          G=DGROUP  M=HALFRW.C   ACBP=48
 22E3:2544 0566 C=DATA   S=_DATA          G=DGROUP  M=HELP.C     ACBP=48
 22E3:2AAA 017A C=DATA   S=_DATA          G=DGROUP  M=LISTDIR.C  ACBP=48
 22E3:2C24 00C3 C=DATA   S=_DATA          G=DGROUP  M=PCX.C      ACBP=48
 22E3:2CE8 023F C=DATA   S=_DATA          G=DGROUP  M=PROTECT.C  ACBP=48
 22E3:2F28 0004 C=DATA   S=_DATA          G=DGROUP  M=TEXTSCR.C  ACBP=48
 22E3:2F2C 00B0 C=DATA   S=_DATA          G=DGROUP  M=THART.C    ACBP=48
 22E3:2FDC 009C C=DATA   S=_DATA          G=DGROUP  M=UTIL.C     ACBP=48
 22E3:3078 0006 C=DATA   S=_DATA          G=DGROUP  M=UTILRW.C   ACBP=48
 22E3:307E 0006 C=DATA   S=_DATA          G=DGROUP  M=GLOAD      ACBP=48
 22E3:3084 065B C=DATA   S=_DATA          G=DGROUP  M=GRAPHC     ACBP=48
 22E3:36E0 000B C=DATA   S=_DATA          G=DGROUP  M=GRAPH      ACBP=48
 22E3:36F0 0002 C=DATA   S=_DATA          G=DGROUP  M=FP87INIT   ACBP=68
 22E3:3700 0000 C=DATA   S=_DATA          G=DGROUP  M=E87TRAP    ACBP=68
 22E3:3700 0003 C=DATA   S=_DATA          G=DGROUP  M=PROTFLAG   ACBP=48
 22E3:3704 0002 C=DATA   S=_DATA          G=DGROUP  M=DEFLT87    ACBP=48
 22E3:3706 0024 C=DATA   S=_DATA          G=DGROUP  M=HUGEVAL    ACBP=48
 22E3:372A 0000 C=DATA   S=_DATA          G=DGROUP  M=LDTRUNC    ACBP=48
 22E3:372A 0000 C=DATA   S=_DATA          G=DGROUP  M=REALCVT    ACBP=48
 22E3:372A 0018 C=DATA   S=_DATA          G=DGROUP  M=SCANTOD    ACBP=48
 22E3:3742 0000 C=DATA   S=_DATA          G=DGROUP  M=XCVT       ACBP=48
 22E3:3742 009A C=DATA   S=_DATA          G=DGROUP  M=FPERR      ACBP=48
 22E3:37DC 0080 C=DATA   S=_DATA          G=DGROUP  M=_POW10     ACBP=48
 22E3:385C 0000 C=DATA   S=_DATA          G=DGROUP  M=POW10D     ACBP=48
 22E3:385C 0000 C=DATA   S=_DATA          G=DGROUP  M=FFTOL      ACBP=48
 22E3:385C 0002 C=DATA   S=_DATA          G=DGROUP  M=ATEXIT     ACBP=48
 22E3:385E 0000 C=DATA   S=_DATA          G=DGROUP  M=CHDRIVE    ACBP=48
 22E3:385E 0101 C=DATA   S=_DATA          G=DGROUP  M=CTYPE      ACBP=48
 22E3:3960 0000 C=DATA   S=_DATA          G=DGROUP  M=DEL        ACBP=48
 22E3:3960 0000 C=DATA   S=_DATA          G=DGROUP  M=DOSFATTR   ACBP=48
 22E3:3960 0000 C=DATA   S=_DATA          G=DGROUP  M=DOSGDRIV   ACBP=48
 22E3:3960 0000 C=DATA   S=_DATA          G=DGROUP  M=ERRORMSG   ACBP=48
 22E3:3960 000C C=DATA   S=_DATA          G=DGROUP  M=EXIT       ACBP=48
 22E3:396C 0190 C=DATA   S=_DATA          G=DGROUP  M=FILES      ACBP=48
 22E3:3AFC 002A C=DATA   S=_DATA          G=DGROUP  M=FILES2     ACBP=48
 22E3:3B26 0004 C=DATA   S=_DATA          G=DGROUP  M=FMODE      ACBP=48
 22E3:3B2A 0002 C=DATA   S=_DATA          G=DGROUP  M=FPSTKLEN   ACBP=48
 22E3:3B2C 0000 C=DATA   S=_DATA          G=DGROUP  M=F_LXMUL    ACBP=48
 22E3:3B2C 0000 C=DATA   S=_DATA          G=DGROUP  M=F_SCOPY    ACBP=48
 22E3:3B2C 0000 C=DATA   S=_DATA          G=DGROUP  M=GETCURDI   ACBP=48
 22E3:3B2C 0000 C=DATA   S=_DATA          G=DGROUP  M=GETDATE    ACBP=48
 22E3:3B2C 0000 C=DATA   S=_DATA          G=DGROUP  M=GETDISK    ACBP=48
 22E3:3B2C 0000 C=DATA   S=_DATA          G=DGROUP  M=GETFAT     ACBP=48
 22E3:3B2C 0000 C=DATA   S=_DATA          G=DGROUP  M=GETFTIME   ACBP=48
 22E3:3B2C 0000 C=DATA   S=_DATA          G=DGROUP  M=GETVECT    ACBP=48
 22E3:3B2C 0000 C=DATA   S=_DATA          G=DGROUP  M=H_LDIV     ACBP=48
 22E3:3B2C 0000 C=DATA   S=_DATA          G=DGROUP  M=H_LLSH     ACBP=48
 22E3:3B2C 0000 C=DATA   S=_DATA          G=DGROUP  M=H_PADD     ACBP=48
 22E3:3B2C 0000 C=DATA   S=_DATA          G=DGROUP  M=H_PSBP     ACBP=48
 22E3:3B2C 005B C=DATA   S=_DATA          G=DGROUP  M=IOERROR    ACBP=48
 22E3:3B88 0000 C=DATA   S=_DATA          G=DGROUP  M=ISATTY     ACBP=48
 22E3:3B88 0000 C=DATA   S=_DATA          G=DGROUP  M=LONGTOA    ACBP=48
 22E3:3B88 0000 C=DATA   S=_DATA          G=DGROUP  M=LSEEK      ACBP=48
 22E3:3B88 0009 C=DATA   S=_DATA          G=DGROUP  M=MKNAME     ACBP=48
 22E3:3B92 0000 C=DATA   S=_DATA          G=DGROUP  M=NEW        ACBP=48
 22E3:3B92 0000 C=DATA   S=_DATA          G=DGROUP  M=NEWF       ACBP=48
 22E3:3B92 0000 C=DATA   S=_DATA          G=DGROUP  M=N_LXMUL    ACBP=48
 22E3:3B92 0000 C=DATA   S=_DATA          G=DGROUP  M=N_PCMP     ACBP=48
 22E3:3B92 003A C=DATA   S=_DATA          G=DGROUP  M=PUREERR    ACBP=48
 22E3:3BCC 0000 C=DATA   S=_DATA          G=DGROUP  M=READA      ACBP=48
 22E3:3BCC 0000 C=DATA   S=_DATA          G=DGROUP  M=SEGREAD    ACBP=48
 22E3:3BCC 0000 C=DATA   S=_DATA          G=DGROUP  M=SETDATE    ACBP=48
 22E3:3BCC 0000 C=DATA   S=_DATA          G=DGROUP  M=SETFTIME   ACBP=48
 22E3:3BCC 0000 C=DATA   S=_DATA          G=DGROUP  M=SETUPIO    ACBP=48
 22E3:3BCC 0000 C=DATA   S=_DATA          G=DGROUP  M=SIGDATA    ACBP=48
 22E3:3BCC 0000 C=DATA   S=_DATA          G=DGROUP  M=STIME      ACBP=48
 22E3:3BCC 0002 C=DATA   S=_DATA          G=DGROUP  M=STKLEN     ACBP=48
 22E3:3BCE 0000 C=DATA   S=_DATA          G=DGROUP  M=TOUPPER    ACBP=48
 22E3:3BCE 0000 C=DATA   S=_DATA          G=DGROUP  M=UNLINK     ACBP=48
 22E3:3BCE 0000 C=DATA   S=_DATA          G=DGROUP  M=VDELF      ACBP=48
 22E3:3BCE 0000 C=DATA   S=_DATA          G=DGROUP  M=VNEWF      ACBP=48
 22E3:3BCE 0067 C=DATA   S=_DATA          G=DGROUP  M=VPRINTER   ACBP=48
 22E3:3C36 0000 C=DATA   S=_DATA          G=DGROUP  M=VRAM       ACBP=48
 22E3:3C36 0002 C=DATA   S=_DATA          G=DGROUP  M=WSCROLL    ACBP=48
 22E3:3C38 0000 C=DATA   S=_DATA          G=DGROUP  M=_STPCPY    ACBP=48
 22E3:3C38 0002 C=DATA   S=_DATA          G=DGROUP  M=ABSREAD    ACBP=48
 22E3:3C3A 0000 C=DATA   S=_DATA          G=DGROUP  M=BIOSKEY    ACBP=48
 22E3:3C3A 0000 C=DATA   S=_DATA          G=DGROUP  M=BIOSPRIN   ACBP=48
 22E3:3C3A 0000 C=DATA   S=_DATA          G=DGROUP  M=CLRSCR     ACBP=48
 22E3:3C3A 0000 C=DATA   S=_DATA          G=DGROUP  M=COLOR      ACBP=48
 22E3:3C3A 0000 C=DATA   S=_DATA          G=DGROUP  M=CORELEFT   ACBP=48
 22E3:3C3A 0000 C=DATA   S=_DATA          G=DGROUP  M=CPRINTF    ACBP=48
 22E3:3C3A 0018 C=DATA   S=_DATA          G=DGROUP  M=CRTINIT    ACBP=48
 22E3:3C52 0031 C=DATA   S=_DATA          G=DGROUP  M=CVTFAK     ACBP=48
 22E3:3C84 0004 C=DATA   S=_DATA          G=DGROUP  M=DELAY      ACBP=48
 22E3:3C88 0000 C=DATA   S=_DATA          G=DGROUP  M=FARHEAP    ACBP=48
 22E3:3C88 0002 C=DATA   S=_DATA          G=DGROUP  M=FBRK       ACBP=48
 22E3:3C8A 0000 C=DATA   S=_DATA          G=DGROUP  M=FCORELFT   ACBP=48
 22E3:3C8A 0000 C=DATA   S=_DATA          G=DGROUP  M=GETCH      ACBP=48
 22E3:3C8A 0000 C=DATA   S=_DATA          G=DGROUP  M=GEXIT      ACBP=48
 22E3:3C8A 0000 C=DATA   S=_DATA          G=DGROUP  M=GFREEMEM   ACBP=48
 22E3:3C8A 0000 C=DATA   S=_DATA          G=DGROUP  M=GGETMEM    ACBP=48
 22E3:3C8A 0000 C=DATA   S=_DATA          G=DGROUP  M=GOTOXY     ACBP=48
 22E3:3C8A 0000 C=DATA   S=_DATA          G=DGROUP  M=GPTEXT     ACBP=48
 22E3:3C8A 0000 C=DATA   S=_DATA          G=DGROUP  M=HARD       ACBP=48
 22E3:3C8A 0000 C=DATA   S=_DATA          G=DGROUP  M=HARDERR    ACBP=48
 22E3:3C8A 0000 C=DATA   S=_DATA          G=DGROUP  M=INT86      ACBP=48
 22E3:3C8A 0000 C=DATA   S=_DATA          G=DGROUP  M=IOCTL      ACBP=48
 22E3:3C8A 0002 C=DATA   S=_DATA          G=DGROUP  M=KBHIT      ACBP=48
 22E3:3C8C 0000 C=DATA   S=_DATA          G=DGROUP  M=MOVETEXT   ACBP=48
 22E3:3C8C 0000 C=DATA   S=_DATA          G=DGROUP  M=PUTCH      ACBP=48
 22E3:3C8C 0000 C=DATA   S=_DATA          G=DGROUP  M=REALCVT    ACBP=48
 22E3:3C8C 0000 C=DATA   S=_DATA          G=DGROUP  M=SCREEN     ACBP=48
 22E3:3C8C 0000 C=DATA   S=_DATA          G=DGROUP  M=SCROLL     ACBP=48
 22E3:3C8C 0010 C=DATA   S=_DATA          G=DGROUP  M=SETARGV    ACBP=48
 22E3:3C9C 0000 C=DATA   S=_DATA          G=DGROUP  M=SETBLOCK   ACBP=48
 22E3:3C9C 0004 C=DATA   S=_DATA          G=DGROUP  M=SETENVP    ACBP=48
 22E3:3CA0 0000 C=DATA   S=_DATA          G=DGROUP  M=SOUND      ACBP=48
 22E3:3CA0 0000 C=DATA   S=_DATA          G=DGROUP  M=TEXTMODE   ACBP=48
 22E3:3CA0 0000 C=DATA   S=_DATA          G=DGROUP  M=WHEREXY    ACBP=48
 22E3:3CA0 0000 C=DATA   S=_DATA          G=DGROUP  M=ATOL       ACBP=48
 22E3:3CA0 0000 C=DATA   S=_DATA          G=DGROUP  M=BDOS       ACBP=48
 22E3:3CA0 0000 C=DATA   S=_DATA          G=DGROUP  M=CHMODA     ACBP=48
 22E3:3CA0 0000 C=DATA   S=_DATA          G=DGROUP  M=CLOSE      ACBP=48
 22E3:3CA0 0000 C=DATA   S=_DATA          G=DGROUP  M=CLOSEA     ACBP=48
 22E3:3CA0 0000 C=DATA   S=_DATA          G=DGROUP  M=CREATA     ACBP=48
 22E3:3CA0 0000 C=DATA   S=_DATA          G=DGROUP  M=EOF        ACBP=48
 22E3:3CA0 0000 C=DATA   S=_DATA          G=DGROUP  M=FCLOSE     ACBP=48
 22E3:3CA0 0000 C=DATA   S=_DATA          G=DGROUP  M=FFLUSH     ACBP=48
 22E3:3CA0 0000 C=DATA   S=_DATA          G=DGROUP  M=FGETS      ACBP=48
 22E3:3CA0 0000 C=DATA   S=_DATA          G=DGROUP  M=FINDFIRS   ACBP=48
 22E3:3CA0 0000 C=DATA   S=_DATA          G=DGROUP  M=FLENGTH    ACBP=48
 22E3:3CA0 0000 C=DATA   S=_DATA          G=DGROUP  M=FLUSHALL   ACBP=48
 22E3:3CA0 0000 C=DATA   S=_DATA          G=DGROUP  M=FOPEN      ACBP=48
 22E3:3CA0 0000 C=DATA   S=_DATA          G=DGROUP  M=FPRINTF    ACBP=48
 22E3:3CA0 0000 C=DATA   S=_DATA          G=DGROUP  M=FREAD      ACBP=48
 22E3:3CA0 0000 C=DATA   S=_DATA          G=DGROUP  M=FSEEK      ACBP=48
 22E3:3CA0 0000 C=DATA   S=_DATA          G=DGROUP  M=FWRITE     ACBP=48
 22E3:3CA0 0000 C=DATA   S=_DATA          G=DGROUP  M=GETC       ACBP=48
 22E3:3CA0 0000 C=DATA   S=_DATA          G=DGROUP  M=GETCWD     ACBP=48
 22E3:3CA0 0000 C=DATA   S=_DATA          G=DGROUP  M=GETDCWD    ACBP=48
 22E3:3CA0 0000 C=DATA   S=_DATA          G=DGROUP  M=GETENV     ACBP=48
 22E3:3CA0 0000 C=DATA   S=_DATA          G=DGROUP  M=LTOA1      ACBP=48
 22E3:3CA0 0000 C=DATA   S=_DATA          G=DGROUP  M=MEMCCPY    ACBP=48
 22E3:3CA0 0000 C=DATA   S=_DATA          G=DGROUP  M=MEMCPY     ACBP=48
 22E3:3CA0 0000 C=DATA   S=_DATA          G=DGROUP  M=MEMSET     ACBP=48
 22E3:3CA0 0000 C=DATA   S=_DATA          G=DGROUP  M=MOVMEM     ACBP=48
 22E3:3CA0 0000 C=DATA   S=_DATA          G=DGROUP  M=OPEN       ACBP=48
 22E3:3CA0 0000 C=DATA   S=_DATA          G=DGROUP  M=OPENA      ACBP=48
 22E3:3CA0 0000 C=DATA   S=_DATA          G=DGROUP  M=PRINTF     ACBP=48
 22E3:3CA0 0001 C=DATA   S=_DATA          G=DGROUP  M=PUTC       ACBP=48
 22E3:3CA2 0000 C=DATA   S=_DATA          G=DGROUP  M=READ       ACBP=48
 22E3:3CA2 0000 C=DATA   S=_DATA          G=DGROUP  M=READU      ACBP=48
 22E3:3CA2 0004 C=DATA   S=_DATA          G=DGROUP  M=SETVBUF    ACBP=48
 22E3:3CA6 0000 C=DATA   S=_DATA          G=DGROUP  M=SPRINTF    ACBP=48
 22E3:3CA6 0000 C=DATA   S=_DATA          G=DGROUP  M=STRCAT     ACBP=48
 22E3:3CA6 0000 C=DATA   S=_DATA          G=DGROUP  M=STRCHR     ACBP=48
 22E3:3CA6 0000 C=DATA   S=_DATA          G=DGROUP  M=STRCMP     ACBP=48
 22E3:3CA6 0000 C=DATA   S=_DATA          G=DGROUP  M=STRCPY     ACBP=48
 22E3:3CA6 0000 C=DATA   S=_DATA          G=DGROUP  M=STRLEN     ACBP=48
 22E3:3CA6 0000 C=DATA   S=_DATA          G=DGROUP  M=STRNCPY    ACBP=48
 22E3:3CA6 0000 C=DATA   S=_DATA          G=DGROUP  M=STRSTR     ACBP=48
 22E3:3CA6 000C C=DATA   S=_DATA          G=DGROUP  M=TIMECVT    ACBP=48
 22E3:3CB2 0033 C=DATA   S=_DATA          G=DGROUP  M=TZSET      ACBP=48
 22E3:3CE6 0000 C=DATA   S=_DATA          G=DGROUP  M=WRITE      ACBP=48
 22E3:3CE6 0000 C=DATA   S=_DATA          G=DGROUP  M=WRITEA     ACBP=48
 22E3:3CE6 0000 C=DATA   S=_DATA          G=DGROUP  M=WRITEU     ACBP=48
 22E3:3CE6 0000 C=DATA   S=_DATA          G=DGROUP  M=XFCLOSE    ACBP=48
 22E3:3CE6 0000 C=DATA   S=_DATA          G=DGROUP  M=XFFLUSH    ACBP=48
 22E3:3CE6 0000 C=DATA   S=_CVTSEG        G=DGROUP  M=c0.ASM     ACBP=48
 22E3:3CE6 0002 C=DATA   S=_CVTSEG        G=DGROUP  M=REALCVT    ACBP=48
 22E3:3CE8 0002 C=DATA   S=_CVTSEG        G=DGROUP  M=CVTFAK     ACBP=48
 22E3:3CEA 0000 C=DATA   S=_CVTSEG        G=DGROUP  M=REALCVT    ACBP=48
 22E3:3CEA 0000 C=DATA   S=_SCNSEG        G=DGROUP  M=c0.ASM     ACBP=48
 22E3:3CEA 0006 C=DATA   S=_SCNSEG        G=DGROUP  M=SCANTOD    ACBP=48
 22E3:3CF0 0006 C=DATA   S=_SCNSEG        G=DGROUP  M=CVTFAK     ACBP=48
 22E3:3CF6 0000 C=DATA   S=GRAPH          G=DGROUP  M=GRAPHC     ACBP=48
 22E3:3CF6 0000 C=CONST  S=_CONST         G=DGROUP  M=c0.ASM     ACBP=48
 22E3:3CF6 0000 C=INITDATA S=_INIT_         G=DGROUP  M=c0.ASM     ACBP=48
 22E3:3CF6 0006 C=INITDATA S=_INIT_         G=DGROUP  M=MAIN.CPP   ACBP=48
 22E3:3CFC 0006 C=INITDATA S=_INIT_         G=DGROUP  M=UTILRW.C   ACBP=48
 22E3:3D02 0006 C=INITDATA S=_INIT_         G=DGROUP  M=FP87INIT   ACBP=48
 22E3:3D08 0006 C=INITDATA S=_INIT_         G=DGROUP  M=SETUPIO    ACBP=48
 22E3:3D0E 0006 C=INITDATA S=_INIT_         G=DGROUP  M=CRTINIT    ACBP=48
 22E3:3D14 0006 C=INITDATA S=_INIT_         G=DGROUP  M=DELAY      ACBP=48
 22E3:3D1A 0006 C=INITDATA S=_INIT_         G=DGROUP  M=SETARGV    ACBP=48
 22E3:3D20 0006 C=INITDATA S=_INIT_         G=DGROUP  M=SETENVP    ACBP=48
 22E3:3D26 0006 C=INITDATA S=_INIT_         G=DGROUP  M=TZSET      ACBP=48
 22E3:3D2C 0000 C=INITDATA S=_INITEND_      G=DGROUP  M=c0.ASM     ACBP=28
 22E3:3D2C 0000 C=EXITDATA S=_EXIT_         G=DGROUP  M=c0.ASM     ACBP=48
 22E3:3D2C 0006 C=EXITDATA S=_EXIT_         G=DGROUP  M=MAIN.CPP   ACBP=48
 22E3:3D32 0006 C=EXITDATA S=_EXIT_         G=DGROUP  M=UTILRW.C   ACBP=48
 22E3:3D38 0006 C=EXITDATA S=_EXIT_         G=DGROUP  M=FP87INIT   ACBP=48
 22E3:3D3E 0000 C=EXITDATA S=_EXITEND_      G=DGROUP  M=c0.ASM     ACBP=28
 22E3:3D3E 0000 C=BSS    S=_BSS           G=DGROUP  M=c0.ASM     ACBP=48
 22E3:3D3E 0000 C=BSS    S=_BSS           G=DGROUP  M=BOX.CPP    ACBP=48
 22E3:3D3E 0000 C=BSS    S=_BSS           G=DGROUP  M=LIST.CPP   ACBP=48
 22E3:3D3E 00CC C=BSS    S=_BSS           G=DGROUP  M=MAIN.CPP   ACBP=48
 22E3:3E0A 0000 C=BSS    S=_BSS           G=DGROUP  M=BUFRW.C    ACBP=48
 22E3:3E0A 0000 C=BSS    S=_BSS           G=DGROUP  M=FTYPE.C    ACBP=48
 22E3:3E0A 00A6 C=BSS    S=_BSS           G=DGROUP  M=GMENU.C    ACBP=48
 22E3:3EB0 0074 C=BSS    S=_BSS           G=DGROUP  M=GRAPHLIB.C ACBP=48
 22E3:3F24 0002 C=BSS    S=_BSS           G=DGROUP  M=GRVIEW.C   ACBP=48
 22E3:3F26 0000 C=BSS    S=_BSS           G=DGROUP  M=HALFRW.C   ACBP=48
 22E3:3F26 0000 C=BSS    S=_BSS           G=DGROUP  M=HELP.C     ACBP=48
 22E3:3F26 0012 C=BSS    S=_BSS           G=DGROUP  M=LISTDIR.C  ACBP=48
 22E3:3F38 008C C=BSS    S=_BSS           G=DGROUP  M=PCX.C      ACBP=48
 22E3:3FC4 0002 C=BSS    S=_BSS           G=DGROUP  M=PROTECT.C  ACBP=48
 22E3:3FC6 0000 C=BSS    S=_BSS           G=DGROUP  M=TEXTSCR.C  ACBP=48
 22E3:3FC6 0000 C=BSS    S=_BSS           G=DGROUP  M=THART.C    ACBP=48
 22E3:3FC6 0000 C=BSS    S=_BSS           G=DGROUP  M=UTIL.C     ACBP=48
 22E3:3FC6 0080 C=BSS    S=_BSS           G=DGROUP  M=UTILRW.C   ACBP=48
 22E3:4046 0000 C=BSS    S=_BSS           G=DGROUP  M=LDTRUNC    ACBP=48
 22E3:4046 0000 C=BSS    S=_BSS           G=DGROUP  M=REALCVT    ACBP=48
 22E3:4046 0000 C=BSS    S=_BSS           G=DGROUP  M=SCANTOD    ACBP=48
 22E3:4046 0000 C=BSS    S=_BSS           G=DGROUP  M=XCVT       ACBP=48
 22E3:4046 0000 C=BSS    S=_BSS           G=DGROUP  M=_POW10     ACBP=48
 22E3:4046 0080 C=BSS    S=_BSS           G=DGROUP  M=ATEXIT     ACBP=48
 22E3:40C6 0000 C=BSS    S=_BSS           G=DGROUP  M=DOSFATTR   ACBP=48
 22E3:40C6 0000 C=BSS    S=_BSS           G=DGROUP  M=GETCURDI   ACBP=48
 22E3:40C6 0000 C=BSS    S=_BSS           G=DGROUP  M=GETFAT     ACBP=48
 22E3:40C6 0000 C=BSS    S=_BSS           G=DGROUP  M=GETFTIME   ACBP=48
 22E3:40C6 0000 C=BSS    S=_BSS           G=DGROUP  M=GETVECT    ACBP=48
 22E3:40C6 0000 C=BSS    S=_BSS           G=DGROUP  M=IOERROR    ACBP=48
 22E3:40C6 0000 C=BSS    S=_BSS           G=DGROUP  M=ISATTY     ACBP=48
 22E3:40C6 0000 C=BSS    S=_BSS           G=DGROUP  M=LONGTOA    ACBP=48
 22E3:40C6 0000 C=BSS    S=_BSS           G=DGROUP  M=LSEEK      ACBP=48
 22E3:40C6 000D C=BSS    S=_BSS           G=DGROUP  M=MKNAME     ACBP=48
 22E3:40D4 0004 C=BSS    S=_BSS           G=DGROUP  M=NEW        ACBP=48
 22E3:40D8 0000 C=BSS    S=_BSS           G=DGROUP  M=READA      ACBP=48
 22E3:40D8 0000 C=BSS    S=_BSS           G=DGROUP  M=SEGREAD    ACBP=48
 22E3:40D8 0000 C=BSS    S=_BSS           G=DGROUP  M=SETDATE    ACBP=48
 22E3:40D8 0000 C=BSS    S=_BSS           G=DGROUP  M=SETFTIME   ACBP=48
 22E3:40D8 0000 C=BSS    S=_BSS           G=DGROUP  M=SETUPIO    ACBP=48
 22E3:40D8 0004 C=BSS    S=_BSS           G=DGROUP  M=SIGDATA    ACBP=48
 22E3:40DC 0000 C=BSS    S=_BSS           G=DGROUP  M=UNLINK     ACBP=48
 22E3:40DC 0000 C=BSS    S=_BSS           G=DGROUP  M=VPRINTER   ACBP=48
 22E3:40DC 0000 C=BSS    S=_BSS           G=DGROUP  M=VRAM       ACBP=48
 22E3:40DC 0002 C=BSS    S=_BSS           G=DGROUP  M=ABSREAD    ACBP=48
 22E3:40DE 0000 C=BSS    S=_BSS           G=DGROUP  M=BIOSKEY    ACBP=48
 22E3:40DE 0000 C=BSS    S=_BSS           G=DGROUP  M=BIOSPRIN   ACBP=48
 22E3:40DE 0000 C=BSS    S=_BSS           G=DGROUP  M=CORELEFT   ACBP=48
 22E3:40DE 0000 C=BSS    S=_BSS           G=DGROUP  M=CRTINIT    ACBP=48
 22E3:40DE 0000 C=BSS    S=_BSS           G=DGROUP  M=DELAY      ACBP=48
 22E3:40DE 0000 C=BSS    S=_BSS           G=DGROUP  M=GETCH      ACBP=48
 22E3:40DE 000C C=BSS    S=_BSS           G=DGROUP  M=HARDERR    ACBP=48
 22E3:40EA 0000 C=BSS    S=_BSS           G=DGROUP  M=INT86      ACBP=48
 22E3:40EA 0000 C=BSS    S=_BSS           G=DGROUP  M=IOCTL      ACBP=48
 22E3:40EA 0000 C=BSS    S=_BSS           G=DGROUP  M=KBHIT      ACBP=48
 22E3:40EA 0000 C=BSS    S=_BSS           G=DGROUP  M=SETBLOCK   ACBP=48
 22E3:40EA 0000 C=BSS    S=_BSS           G=DGROUP  M=SOUND      ACBP=48
 22E3:40EA 0000 C=BSS    S=_BSS           G=DGROUP  M=ATOL       ACBP=48
 22E3:40EA 0000 C=BSS    S=_BSS           G=DGROUP  M=BDOS       ACBP=48
 22E3:40EA 0000 C=BSS    S=_BSS           G=DGROUP  M=CHMODA     ACBP=48
 22E3:40EA 0000 C=BSS    S=_BSS           G=DGROUP  M=CLOSEA     ACBP=48
 22E3:40EA 0000 C=BSS    S=_BSS           G=DGROUP  M=CREATA     ACBP=48
 22E3:40EA 0000 C=BSS    S=_BSS           G=DGROUP  M=EOF        ACBP=48
 22E3:40EA 0000 C=BSS    S=_BSS           G=DGROUP  M=FINDFIRS   ACBP=48
 22E3:40EA 0000 C=BSS    S=_BSS           G=DGROUP  M=FLENGTH    ACBP=48
 22E3:40EA 0000 C=BSS    S=_BSS           G=DGROUP  M=FREAD      ACBP=48
 22E3:40EA 0000 C=BSS    S=_BSS           G=DGROUP  M=FWRITE     ACBP=48
 22E3:40EA 0001 C=BSS    S=_BSS           G=DGROUP  M=GETC       ACBP=48
 22E3:40EC 0000 C=BSS    S=_BSS           G=DGROUP  M=GETDCWD    ACBP=48
 22E3:40EC 0000 C=BSS    S=_BSS           G=DGROUP  M=GETENV     ACBP=48
 22E3:40EC 0000 C=BSS    S=_BSS           G=DGROUP  M=MEMCCPY    ACBP=48
 22E3:40EC 0000 C=BSS    S=_BSS           G=DGROUP  M=MEMCPY     ACBP=48
 22E3:40EC 0000 C=BSS    S=_BSS           G=DGROUP  M=MEMSET     ACBP=48
 22E3:40EC 0000 C=BSS    S=_BSS           G=DGROUP  M=MOVMEM     ACBP=48
 22E3:40EC 0000 C=BSS    S=_BSS           G=DGROUP  M=OPEN       ACBP=48
 22E3:40EC 0000 C=BSS    S=_BSS           G=DGROUP  M=OPENA      ACBP=48
 22E3:40EC 0001 C=BSS    S=_BSS           G=DGROUP  M=PUTC       ACBP=48
 22E3:40EE 0000 C=BSS    S=_BSS           G=DGROUP  M=READ       ACBP=48
 22E3:40EE 0000 C=BSS    S=_BSS           G=DGROUP  M=STRCAT     ACBP=48
 22E3:40EE 0000 C=BSS    S=_BSS           G=DGROUP  M=STRCHR     ACBP=48
 22E3:40EE 0000 C=BSS    S=_BSS           G=DGROUP  M=STRCMP     ACBP=48
 22E3:40EE 0000 C=BSS    S=_BSS           G=DGROUP  M=STRCPY     ACBP=48
 22E3:40EE 0000 C=BSS    S=_BSS           G=DGROUP  M=STRLEN     ACBP=48
 22E3:40EE 0000 C=BSS    S=_BSS           G=DGROUP  M=STRNCPY    ACBP=48
 22E3:40EE 0000 C=BSS    S=_BSS           G=DGROUP  M=STRSTR     ACBP=48
 22E3:40EE 0008 C=BSS    S=_BSS           G=DGROUP  M=TZSET      ACBP=48
 22E3:40F6 0000 C=BSS    S=_BSS           G=DGROUP  M=WRITEA     ACBP=48
 22E3:40F6 0000 C=BSSEND S=_BSSEND        G=DGROUP  M=c0.ASM     ACBP=28
 26F3:0000 0110 C=STACK  S=_STACK         G=(none)  M=c0.ASM     ACBP=74
 26F3:0000 0080 C=STACK  S=_STACK         G=(none)  M=EMUVARS    ACBP=78

  Address         Publics by Name

 0000:0EC7       operator delete(void far*)
 0000:14A2       operator new(unsigned int)
 0000:14E4       operator new(unsigned long)
 09D0:1296 idle  AboutProgram()
 09D0:14D7 idle  AboutSystem()
 0D65:2EB7       ActivateMenu(int)
 09D0:0FF2 idle  ActivateViewer()
 09D0:1B6C idle  AddColorStrings(int)
 0D65:475B idle  AddKeyToBuf(int)
 0D65:12B6       AddLastStringToItem(int,unsigned char far*,unsigned char far*,unsigned char far*)
 0D65:4A05       AddStatus(int,int,unsigned char far*,unsigned char far*,unsigned char far*)
 0D65:1056       AddStringToItem(int,unsigned char far*,unsigned char far*,unsigned char far*)
 0D65:22A0 idle  AddStringToStringItem(unsigned char far*,unsigned char far*,int)
 1C3F:03DD idle  AllFilesSpace(unsigned char)
 0C63:1012       atoi(const unsigned char far*)
 0D65:4D19 idle  badkey()
 059A:000A       Box(int,int,unsigned char far*,unsigned char far*,unsigned char far*,unsigned char far*,unsigned char far*,
 059A:051A idle  BOX::BOX()
 059A:12B8       BOX::~BOX()
 059A:0E6F idle  BOX::CountBoxParams()
 059A:107D idle  BOX::DefineKeyLeft(int)
 059A:0E09 idle  BOX::DefineMaxMessageLength()
 059A:0920 idle  BOX::Draw(int,int)
 059A:0D66 idle  BOX::DrawKey(int)
 059A:0FCE idle  BOX::DrawMessage(int)
 059A:06E4 idle  BOX::InitBox()
 059A:112E idle  BOX::Monitor()
 059A:084D idle  BOX::SetBoxKey(unsigned char far*,int,int)
 059A:08D9 idle  BOX::SetBoxKeyColors(int,int,int,int,int,int)
 059A:0801 idle  BOX::SetColors(int,int,int)
 059A:071E idle  BOX::SetHorizontal(int,int,int,int,int,int)
 059A:07A1 idle  BOX::SetKeyMargins(int,int)
 059A:07BC idle  BOX::SetMessageString(unsigned char far*)
 059A:0827 idle  BOX::SetShadow(int,int,int)
 059A:0765 idle  BOX::SetVertical(int,int,int,int,int)
 059A:02CE idle  BOX_KEY::BOX_KEY()
 059A:1302       BOX_KEY::~BOX_KEY()
 059A:0447 idle  BOX_KEY::Draw(int,int,int,int,int)
 059A:0387 idle  BOX_KEY::GetLength()
 059A:03A4 idle  BOX_KEY::IfMyKey(int,int,int)
 059A:035D idle  BOX_KEY::SetKey(unsigned char far*,int,int)
 059A:033B idle  BOX_KEY::SetLTBCorner(int,int,int)
 22E3:166D       BufRead::
 0C26:0006       BufRead::BufRead()
 0C26:00BF idle  BufRead::~BufRead()
 0C26:0072 idle  BufRead::AllocMem()
 1D5C:047F       BufRead::bigRew()
 0C26:03BD       BufRead::FF()
 0C26:00F9 idle  BufRead::FreeMem()
 0C26:0110       BufRead::ReadByte(int far*)
 0C26:0172       BufRead::RenewBuf()
 1902:01DE       BufRead::Rew()
 09D0:253A       BufRead::SetFileHandler(int)
 22E3:1661       BufWrite::
 0C26:01DD idle  BufWrite::BufWrite()
 0C26:028E idle  BufWrite::~BufWrite()
 0C26:0241 idle  BufWrite::AllocMem()
 0C26:03C9       BufWrite::FF()
 0C26:02DE idle  BufWrite::FreeMem()
 0C26:0350 idle  BufWrite::RenewBuf()
 1902:01EA       BufWrite::Rew()
 0C26:02F5       BufWrite::WriteByte(int)
 09D0:0BA1 idle  CheckFiles()
 15B6:0411       ChooseTheme(BufRead far*)
 1A10:14C2 idle  ClearListDirScreen(int,int,int,int)
 09D0:1253       ClearScreen()
 1B77:0069 idle  closeScreen()
 1DA7:0475       CompareStrings(const unsigned char far*,const unsigned char far*,int,int)
 1DA7:0558 idle  CompareSymbols(const unsigned char,const ...
 0C63:0125 idle  CordDouble2String(double,unsigned char far*,unsigned char)
 0C63:0D89 idle  CordInt2String(int,unsigned char far*,unsigned char)
 0C63:0005 idle  CordInts2String(int,int,unsigned char far*,unsigned char)
 0C63:00C6 idle  CordInts3String(int,int,int,unsigned char far*,unsigned char)
 0C63:047B idle  CordString2Double(unsigned char far*,double far*)
 0C63:0C1D idle  CordString2Int(unsigned char far*,int far*)
 0C63:01E7 idle  CordString2Ints(unsigned char far*,int far*,int far*)
 0C63:0334 idle  CordString3Ints(unsigned char far*,int far*,int far*,int far*)
 0C63:07A9 idle  Date2String(int,int,int,unsigned char far*,unsigned char far*)
 0C63:0964 idle  Date2StringE(int,int,int,unsigned char,unsigned char far*,unsigned char far*)
 1241:29A1 idle  days_in_month(int,int)
 1C3F:000E idle  DefineHardData(unsigned int far*,unsigned int far*)
 0D65:2AEF idle  DefineItemPosition(int,int,int far*,int far*,int far*,int far*)
 0D65:0480       DestroyAllMenus()
 0D65:03A8 idle  DestroyMenu(int)
 1A10:12DB idle  Dget(unsigned char far*,unsigned char far*,unsigned char far*,int far*)
 1A10:1358 idle  Dgetfiles(unsigned char far*,unsigned char far*,unsigned char far*,unsigned char)
 1EBE:18AA idle  @DGROUP
 1DA7:02B7       diskspace(int)
 1C3F:0395 idle  DiskSpace(int)
 0D65:2D80 idle  DrawBordStr(int,int,int,int,int,int,unsigned char far*)
 0D65:27EA idle  DrawItem(int,int)
 0D65:2350 idle  DrawMenu(int,int)
 09D0:1E63 idle  dummy()
 1B77:07FF idle  EGAReadLine(unsigned char far*,int,int,int)
 1B77:00E7 idle  EGAWriteLinePlanes(unsigned char far*,int,int,int,int)
 22E3:2527       enter_list::
 15B6:3161       ENTER_LIST::ENTER_LIST(int)
 15B6:31C1       ENTER_LIST::~ENTER_LIST()
 06CC:0F53 idle  ENTER_LIST::DefineStringColor(int,unsigned char)
 06CC:2E22       ENTER_LIST::DrawList()
 06CC:2E3E       ENTER_LIST::DrawScreen()
 06CC:0CD7 idle  ENTER_LIST::DrawStringFull(int,int)
 06CC:0C49 idle  ENTER_LIST::GetStringField(int,int far*,int far*,int far*,int far*)
 06CC:0035       ENTER_LIST::IfMyKey(int,int,int)
 06CC:0DE5 idle  ENTER_LIST::IfMyMouse(int,int)
 06CC:0D9A idle  ENTER_LIST::IfStringIsOnPage(int)
 06CC:2E6A       ENTER_LIST::LineOfCurstring()
 06CC:0D66 idle  ENTER_LIST::LineOfString(int)
 06CC:0132       ENTER_LIST::Manage(int,int,int)
 06CC:0098       ENTER_LIST::Monitor()
 15B6:32A7       ENTER_LIST::SetColors(int,int,int,int)
 06CC:0003 idle  ENTER_LIST::SetStatusType(unsigned char,int,int)
 1DA7:027F       FindFreeDrive(long)
 0D65:4099 idle  FindNextMenu(long)
 09D0:0B05 idle  finish()
 09D0:0A3F idle  FinishAll()
 1DA7:05C4       ftoupper(int)
 1241:2D55 idle  FUConvertC(unsigned char far*)
 1241:2B30 idle  FUIfinRef(int)
 1241:2EF1 idle  FULoadFont(FUFONT far*,int)
 1241:2AD1 idle  FUOff()
 1241:2AC6 idle  FUOn()
 1241:2E94 idle  FUPrintSym(int,int)
 1241:2B7C idle  FUPutSym(int,int,int,int)
 1241:2C11 idle  FUPutSymc(int,int,int,int,int)
 1241:301A idle  FUReleaseFont(FUFONT far*)
 1241:2ADC idle  FUSetCurrentFont(FUFONT far*)
 1241:2AEE idle  FUSetCurrentRef(FUREF far*)
 1241:2B00 idle  FUSetRef(FUREF far*,int,unsigned char far*,unsigned char far*)
 1241:2C3A idle  FUtext(int,int,unsigned char far*)
 1241:0D46       gerrmes(int,unsigned char far*,int,int)
 1E08:049C idle  GetArtName(BufRead far*,int,unsigned char far*)
 1E08:099D       GetArtNamesFromTh(int,BufRead far*,BufRead far*,unsigned char far*far*,int far*)
 1E08:071F       GetArtNamesList(BufRead far*,unsigned char far*far*,int far*)
 1E08:0516       GetArtNum(BufRead far*,unsigned char far*,int far*)
 0D65:2E53 idle  GetBordLength(int,int far*,int far*)
 0C63:05D8 idle  GetCurrentTime()
 0D65:47E3 idle  GetEvent()
 1E08:08D1       GetHistoryList(BufRead far*,unsigned char far*far*,int far*)
 0D65:47AC idle  GetKeyFromBuf()
 1E08:06B9 idle  GetNextArtNameNum(BufRead far*,unsigned char far*,int far*)
 1E08:063E idle  GetNextThNameNum(BufRead far*,unsigned char far*,int far*)
 0C63:060A idle  GetPassedTime()
 09D0:247E idle  GetPath(const unsigned char far*)
 0D65:2E0E idle  GetStrSumWidth(int,int)
 0D65:433F idle  GetSwapFileName(unsigned char far*,int,int,unsigned char far*)
 1241:14D6       getsym()
 1241:1394 idle  getsym_filtered(int)
 1E08:05F9       GetThName(BufRead far*,unsigned char far*,int)
 1E08:07F8       GetThNamesList(BufRead far*,unsigned char far*far*,int far*)
 1E08:05A2       GetThNum(BufRead far*,unsigned char far*,int far*)
 0D65:45C4 idle  GetUpperMenuHandler(int,int)
 09D0:1F76 idle  GetVersion()
 09D0:24D6       GMEVENT::GMEVENT()
 09D0:2519       GMEVENT::~GMEVENT()
 1E08:000D idle  GoToChar(BufRead far&,unsigned char)
 1241:3543 idle  GWaitChange(int)
 1241:36DE idle  GWaitClose()
 1241:3378 idle  GWaitInit(int,int,int,int,int,int,int,int,int)
 1921:0C1C idle  HAddEntry(int,int,int,int,unsigned char far*)
 1921:0E88 idle  HAddMem(int)
 1921:0245       HCloseHelp()
 0D65:20CE       HideItem(int,int)
 1921:0006       HInitHelp(unsigned char far*,int,int,int,int,int,int,int,int,int,int,int,int)
 1921:06B8 idle  HLoadHelp(int)
 1921:0DCF idle  HShowEntry(int,unsigned char)
 1921:0274       HShowHelp(int)
 1921:0879 idle  HShowHelpPage(int)
 1921:0A9F idle  HShowHelpString(int,int,unsigned char far*)
 1241:277E idle  IfDate(unsigned char far*)
 0D65:4607 idle  IfHighLet(int,int)
 1C3F:00D8 idle  IfSameHard(int,int)
 0D65:171A       InitFuncItem(int,unsigned char far*,unsigned char far*,unsigned char far*,int,int,int,int(far*)(),int,int,int
 1A10:06A6 idle  InitListEnterItem(int,int,int,int,int,int,int,int)
 0D65:0006       InitMenu(int far*,int,int,unsigned char,int,int,unsigned char far*,unsigned char far*,unsigned char far*,int,
 0D65:0533       InitMenuItem(int,unsigned char far*,unsigned char far*,unsigned char far*,int,int,int,int,int(far*)(),int)
 0D65:3B48 idle  InitSaveBuf()
 0D65:1A94 idle  InitStringItem(int,unsigned char far*,unsigned char far*,unsigned char far*,int,int,int,unsigned char far*,
 0D65:0DA3       InitSwitchItem(int,unsigned char far*,unsigned char far*,unsigned char far*,int,int,int,int far*,int,int)
 09D0:0F75 idle  InitViewer()
 0D65:08AC idle  InitYesNoItem(int,unsigned char far*,unsigned char far*,unsigned char far*,int,int,int,int far*,int,int)
 1DA7:02FD idle  lastfilechoise(unsigned char far*,unsigned char far*)
 0D65:4141 idle  LastSaveBufCoord(long far*,long far*)
 1A10:1582 idle  ldirmes(int)
 09D0:0A11 idle  LeaveMainMenu()
 22E3:0599       list::
 06CC:196F       LIST::LIST(int)
 06CC:1BAF       LIST::~LIST()
 06CC:2E04 idle  LIST::beep()
 06CC:2372 idle  LIST::ClearSearchBuffer()
 06CC:2463 idle  LIST::CloseSearchBufferWindow()
 06CC:2C8D idle  LIST::CreateABCIndex()
 06CC:2B3F idle  LIST::DefineMaxStringLength()
 06CC:2D86 idle  LIST::DefineSearchBufferCoordinates(int far*,int far*,int far*,int far*)
 06CC:1FAB idle  LIST::DefineStringColor(int)
 06CC:2BC4 idle  LIST::DefineStringCoordinates(int,int far*,int far*)
 06CC:25AF idle  LIST::DrawList()
 06CC:28EF idle  LIST::DrawScreen()
 06CC:2F4E       LIST::DrawSlideBar()
 06CC:2AEB idle  LIST::DrawString(int,int)
 06CC:2149 idle  LIST::FindStringAccordingToSearchBuffe(int,int)
 06CC:2E87       LIST::GetDirection()
 06CC:20D4 idle  LIST::GetNumInABC(int)
 06CC:2EE1       LIST::GetString(int)
 06CC:2EB1       LIST::GetVertInterval()
 06CC:2E96       LIST::IfABCOrderExists()
 06CC:201A idle  LIST::IfMyKey(int,int,int)
 06CC:23C1 idle  LIST::OpenSearchBufferWindow()
 06CC:24ED idle  LIST::RepaintSearchBuffer()
 06CC:1D98       LIST::SetABCOrder(int,unsigned char far*)
 06CC:1DED       LIST::SetABCSearchBuffer(int,int)
 06CC:2F1A       LIST::SetBarBottom(int)
 15B6:3311       LIST::SetBarButtonHeight(int)
 15B6:332B       LIST::SetBarColors(int,int,int,int,int)
 06CC:2F34       LIST::SetBarRight(int)
 06CC:2F00       LIST::SetBarTop(int)
 15B6:328D       LIST::SetBarWidth(int)
 15B6:32D6       LIST::SetBorder(int,int)
 15B6:3449       LIST::SetColors(int,int)
 06CC:1E5E       LIST::SetColumns(int,int)
 06CC:1CBC       LIST::SetData(unsigned char far*far*,int,unsigned char far*)
 15B6:32F1       LIST::SetDirection(int)
 15B6:3301       LIST::SetHelpItem(int)
 15B6:31FB       LIST::SetLTCorner(int,int)
 06CC:1F15       LIST::SetMargins(int,int,int)
 15B6:3244       LIST::SetRBCorner(int,int)
 06CC:1F6B idle  LIST::SetStatusType(unsigned char,int)
 1A10:0754 idle  ListDir(unsigned char far*,unsigned char far*,unsigned char far*,int,int)
 09D0:182A idle  LoadConfiguration()
 1C3F:0651 idle  MakeKeyDisk(int)
 1CA6:0721 idle  MemMoveLineDown(int,int,int,int,int)
 1CA6:06F1 idle  MemMoveLineUp(int,int,int,int,int)
 0D65:3FD7 idle  MemoryMove(long,long)
 09D0:0137 idle  menu()
 0D65:4D54 idle  MenuInf()
 0D65:4CEB idle  menusound(int)
 0D65:4844 idle  MouseOperate(int,int)
 0D65:2056 idle  MoveMenu(int,int,int)
 0D65:4D37 idle  msound(int)
 09D0:0E24 idle  OpenDataFiles()
 1B77:003A idle  openScreen(unsigned char)
 1A10:0668 idle  PaintString(unsigned char far*far*,int,int,int,int,int,int,int,int,int,int)
 1DA7:03A8 idle  Path2Name(unsigned char far*,unsigned char far*)
 1B77:042F idle  PCXGetSize(unsigned char far*,int far*,int far*,int far*,int far*)
 1B77:0994 idle  PCXSave(unsigned char far*)
 1B77:04BF idle  PCXSetPalette(unsigned char far*)
 1B77:058C       PCXWrite(unsigned char far*)
 15B6:300E idle  PreparePrinter()
 15B6:305D idle  prnerr(int,int,int,int)
 1241:090D       Rbackconvert(int far*,int far*)
 1241:0654 idle  Rbar(int,int,int,int)
 1241:062E       Rbarc(int,int,int,int,int,int)
 1241:1503       RbarcM(int,int,int,int,int,int)
 1241:053F idle  Rbcol(int)
 1241:071F idle  Rcircle(int,int,int)
 1241:0775 idle  Rcirclec(int,int,int,int)
 1241:01EF       Rclose()
 1241:0246 idle  Rclr(int)
 1241:0524       Rcol(int)
 1241:086A       Rconvert(int far*,int far*)
 1241:045A idle  Rdigit(int,int,int)
 1241:048A       Rdigitc(int,int,int,int)
 1241:04BD idle  Rdigit_right(int,int,int,int)
 1C3F:048C idle  ReadBoot(int,int)
 1902:0131 idle  readByte(BufRead far&,int far*)
 1E08:03A6       ReadCodedLine(BufRead far&,unsigned char far*)
 1902:0001       readHalf(BufRead far&,int far*)
 1E08:0054       ReadInt(BufRead far&,int far*)
 1E08:01B9       ReadLong(BufRead far&,long far*)
 1DA7:013F       readmem(unsigned char far*,unsigned char far*)
 1E08:015A       ReadName(BufRead far&,unsigned char far*)
 1C3F:02BD idle  ReadPsw(unsigned char far*,int,unsigned int far*,int,unsigned int far*)
 1E08:0108 idle  ReadString(BufRead far&,unsigned char far*)
 0D65:2133       RebirthItem(int,int)
 1A10:0C51 idle  ReducePath(unsigned char far*,int)
 1241:2A2A idle  REnterFilename(unsigned char far*,int,int,int,int,int,int)
 1241:1FA7       REnterString(unsigned char far*,int,int,int,int,int,int,int,int,int)
 1241:2515 idle  REnterStringBox(unsigned char far*,int,int,int,int,int,int,int,int,int,int,int,unsigned char far*,
 0D65:44BB idle  RestoreLevels(int,int)
 0D65:3DA0 idle  RestoreMenu(int)
 0D65:4C9B idle  RestoreStatusScreen()
 1241:181D       Revent(int far*,int far*)
 1241:022D idle  Rexit(int)
 1241:0BAB       Rgetimage(int,int,int,int,unsigned char far*)
 1241:07DF idle  Rgetpixel(int,int)
 1241:0C89       Rimagesize(int,int,int,int)
 1241:19C3       RInitFkey(int,int,int,unsigned char far*,int,int,int,int)
 1241:0559       Rline(int,int,int,int)
 1241:05B3       Rlinec(int,int,int,int,int)
 1241:112E       Rmessage(unsigned char far*,int,int,int)
 1241:174E       Rmouse_hide()
 1241:17D0 idle  Rmouse_page(int)
 1241:1598       Rmouse_set()
 1241:178F       Rmouse_show()
 1241:1692       Rmouse_status(int far*,int far*)
 1241:000E       Ropen(int)
 1241:0B46       RPaintString(unsigned char far*,int,int,int,int,int,int,int,int,int,int)
 1241:30D3 idle  RPrintSym(unsigned char far*,int,int)
 1241:0C2A       Rputimage(int,int,unsigned char far*,int)
 1241:0A04 idle  RPutLine(int,int,unsigned char far*,int,int)
 1241:09A1 idle  RPutLineClear(int,int,unsigned char far*,int,int)
 1241:0AB8 idle  RPutLineWithCursor(int,int,unsigned char far*,int,int,int,int,int)
 1241:0A5C idle  RPutLineWithHighSym(int,int,unsigned char far*,int,int,int,int)
 1241:0792 idle  Rputpixel(int,int,int)
 1241:3050 idle  RPutSym(int,int,unsigned char far*,int,int)
 1241:06AE idle  Rram(int,int,int,int)
 1241:06FF       Rramc(int,int,int,int,int)
 1241:1573       RramcM(int,int,int,int,int)
 1241:1D0C       RRemoveFkey(int)
 1241:1DC1 idle  RSetFkey(int,int,int,int,int,int,unsigned char far*,int,int,int)
 1241:373B idle  Rsound(int,int)
 1241:0845 idle  RSwitchActivePage()
 1241:1BDC idle  RSwitchAllFkeys(int)
 1241:1A91       RSwitchFkey(int,int)
 1241:0816 idle  RSwitchVisualPage()
 1241:0413 idle  Rsym(int,int,unsigned char)
 1241:043B idle  Rsymc(int,int,unsigned char,int)
 1241:152B idle  RsymcM(int,int,unsigned char,int)
 1241:0259       Rtext(int,int,unsigned char far*)
 1241:02C1       Rtextc(int,int,unsigned char far*,int)
 1241:154E       RtextcM(int,int,unsigned char far*,int)
 1241:03B2 idle  Rtext_with_break(int,int,int,unsigned char far*)
 1241:02E2       Rtext_with_high_let(int,int,unsigned char far*,int,int)
 1241:05D3 idle  RThickLinec(int,int,int,int,int,unsigned char,unsigned char)
 0D65:4242 idle  SaveBufferOnDisk(int)
 09D0:1A14 idle  SaveConfiguration()
 0D65:453C idle  SaveLevels(int,int)
 0D65:3CDC idle  SaveMenu(long far*,long far*,int far*,int,int,int,int)
 0D65:4C46 idle  SaveStatusScreen()
 0C63:0661       Seconds2String(long,unsigned char far*,unsigned char far*)
 1A10:10AC idle  SelectDrive(int,int,int)
 1A10:0DA5 idle  SelectFile(unsigned char far*,unsigned char far*,unsigned char far*,int,int,int)
 09D0:1FEA idle  SetDefaultColors()
 1B77:0007       setEGA()
 0D65:2018 idle  SetEnterStringColors(int,int,int,int)
 0D65:2288       SetExitKey(int,int)
 0D65:46BB idle  SetHighLet(int,int)
 1A10:06DB idle  SetListEnterItem(int,int)
 1B77:002F idle  setOperation(int)
 1B77:0395 idle  setPalette(unsigned char,unsigned char,unsigned char,unsigned char)
 0D65:4992       SetSaveBufferSize(int,int)
 0D65:49DA       SetStatusColor(int,int,int)
 0000:1478 idle  set_new_handler(void(far*)())
 1A10:000F idle  ShowList(unsigned char far*far*,int,int,int,int,int,int,int,int,int,int,int,int,int,int)
 1A10:0D1A idle  ShowPath(unsigned char far*,int,int,int)
 0D65:4A91 idle  ShowStatus(int,int)
 15B6:008D       ShowTheme(BufRead far*,BufRead far*,int)
 06CC:13CC idle  SLIDEBAR::SLIDEBAR()
 06CC:2EC0       SLIDEBAR::~SLIDEBAR()
 06CC:18AC idle  SLIDEBAR::DefinePercent(int)
 06CC:175A idle  SLIDEBAR::DrawButton(int)
 06CC:1472 idle  SLIDEBAR::DrawSlideBar()
 06CC:186D idle  SLIDEBAR::IfMyMouse(int,int)
 06CC:2FB3       SLIDEBAR::SetBarBottom(int)
 15B6:3462       SLIDEBAR::SetBarButtonHeight(int)
 15B6:348A       SLIDEBAR::SetBarColors(int,int,int,int,int)
 15B6:33AA       SLIDEBAR::SetBarHeight(int)
 06CC:3002       SLIDEBAR::SetBarRight(int)
 06CC:2F64       SLIDEBAR::SetBarTop(int)
 15B6:33F9       SLIDEBAR::SetBarWidth(int)
 1C3F:0582       Start()
 09D0:1D5B idle  stmes(int)
 09D0:0B85 idle  stop()
 09D0:1F0C idle  StopIfWrongVersion()
 0C63:09DB idle  String2Date(unsigned char far*,int far*,int far*,int far*,unsigned char far*)
 0C63:0B87 idle  String2DateE(unsigned char far*,int far*,int far*,int far*,unsigned char far*,unsigned char far*)
 0C63:0F0E idle  String2Time(unsigned char far*,int far*,int far*,unsigned char far*)
 0D65:2198       SwitchReset(int,int)
 0D65:3A49 idle  SwitchSet(unsigned char far*,STRINGS far*,int,int)
 0D65:43E2 idle  TakeSwapFileName(int,unsigned char far*,int,unsigned char far*)
 22E3:2FD0       TArticle::
 1D5C:0046       TArticle::TArticle(BufRead far*,BufRead far*)
 1D5C:01F8       TArticle::~TArticle()
 1D5C:01AB       TArticle::ChangeArt(int)
 1D5C:0103 idle  TArticle::DelOldInfo()
 1D5C:0221 idle  TArticle::ReadNamePosition(int,long far*)
 1D5C:02B4 idle  TArticle::ReadTextRef(long)
 1241:134C       termes(unsigned char far*,unsigned char far*)
 1CA6:000B       TextScreen::TextScreen(int,int,int,int,int,int)
 1CA6:032F idle  TextScreen::ClearLine(int)
 1CA6:0472       TextScreen::GetTextRect(int,int,int,int far*,int far*,int far*,int far*)
 1CA6:0675 idle  TextScreen::MoveLineDown(int)
 1CA6:05F9 idle  TextScreen::MoveLineUp(int)
 1CA6:01F9       TextScreen::PutLine(long,unsigned char far*,int,int)
 1CA6:03DA       TextScreen::PutTextBackground(int,int,int,int)
 1CA6:0564       TextScreen::ScrollDown(unsigned char far*)
 1CA6:04F3       TextScreen::ScrollUp(unsigned char far*)
 1CA6:0180 idle  TextScreen::SetColors(int,int,int,int,int,int)
 1CA6:05D2 idle  TextScreen::SetMoveMode()
 1CA6:01C1 idle  TextScreen::TextToPixel(int far*,int far*)
 1CA6:05ED idle  TextScreen::UnSetMoveMode()
 15B6:0007 idle  TFullRef::TFullRef(unsigned char,int,int,int,int,int,TFullRef far*)
 15B6:3366       TFullRef::~TFullRef()
 22E3:2537       TGraphView::
 15B6:0755       TGraphView::TGraphView(BufRead far*,BufRead far*,BufRead far*,int,int,int,int,int,int,int)
 15B6:0938 idle  TGraphView::~TGraphView()
 15B6:11B9 idle  TGraphView::ChangeArt(int)
 15B6:22A2       TGraphView::ChooseArt()
 15B6:25ED       TGraphView::ChooseArtFromHistory()
 15B6:2B0C idle  TGraphView::ClearClient()
 15B6:09A6 idle  TGraphView::DelOldInfo()
 15B6:2BD2 idle  TGraphView::DrawBord()
 15B6:1A85 idle  TGraphView::gotoline(int)
 15B6:0D38 idle  TGraphView::InitViewerKeys()
 15B6:20C9 idle  TGraphView::InsActRef()
 15B6:1EDE idle  TGraphView::InsRefs(int,int)
 15B6:1674 idle  TGraphView::keyanalisys()
 15B6:1C69 idle  TGraphView::movedown()
 15B6:1D6B idle  TGraphView::moveup()
 15B6:1E3E idle  TGraphView::NameNumOut()
 15B6:1B08 idle  TGraphView::pagedown()
 15B6:1BB5 idle  TGraphView::pageup()
 15B6:1146 idle  TGraphView::RemoveViewerKeys()
 15B6:1274 idle  TGraphView::Return()
 09D0:2556       TGraphView::SetMouseMode(int)
 15B6:0A87 idle  TGraphView::setrefs()
 15B6:1395 idle  TGraphView::SetUserColors()
 15B6:151E       TGraphView::show()
 15B6:0ECB idle  TGraphView::SwitchViewerKeys()
 15B6:10B5 idle  TGraphView::SwitchViewerKeysOff()
 15B6:2933 idle  TGraphView::UnInsActRef()
 15B6:2F8A idle  TGraphView::VErrorReact(int)
 15B6:13DC       TGraphView::view()
 0C63:0DFF idle  Time2String(int,int,unsigned char far*,unsigned char far*)
 15B6:3125       TRef::TRef(unsigned char,int)
 1D5C:000D idle  TRef::TRef()
 15B6:3351       TRef::clear()
 22E3:2533       TViewerHistory::
 15B6:2CF2       TViewerHistory::TViewerHistory()
 15B6:2D56       TViewerHistory::~TViewerHistory()
 15B6:2D8B idle  TViewerHistory::AppendLast(int,int,int)
 15B6:2D3A       TViewerHistory::Clear()
 1CA6:0751       TVScroller::TVScroller(int,int,int,int,int,int,int)
 1CA6:0ADC       TVScroller::Analisys(int,int)
 1CA6:080F       TVScroller::Draw()
 1CA6:0AA5 idle  TVScroller::HideHead()
 1CA6:07DF       TVScroller::SetPos(float)
 1CA6:0A29 idle  TVScroller::ShowHead()
 1E08:0264 idle  UncodeChar(int far*,int)
 1C3F:018C idle  UpdatePsw(unsigned char far*,int,unsigned int,int,unsigned int)
 09D0:109C idle  UserChooseArt()
 09D0:11D8 idle  UserChooseFromHistory()
 09D0:1117 idle  UserChooseTheme()
 06CC:1087 idle  VIEW_LIST::Manage(int,int,int)
 06CC:0FFB idle  VIEW_LIST::Monitor()
 09D0:1E6C idle  WarningIfOldDate()
 0D65:2CEE idle  WhichItemPosition(int,int,int)
 1C3F:04F8 idle  WriteBoot(int,int,unsigned char)
 1902:018D idle  writeByte(BufWrite far&,int)
 1902:0081 idle  writeHalf(BufWrite far&,int)
 1E08:00A7 idle  WriteInt(BufWrite far&,int)
 1DA7:0001       writemem(unsigned char far*,unsigned char far*,long)
 1B77:0092 idle  writePixel(unsigned int,unsigned int)
 0D65:399F idle  YesNoSet(unsigned char far*,int far*,int)
 09D0:20CC idle  zast()
 0000:17DB       _vector_delete_(void far*,unsigned int,unsigned long,unsigned int,...)
 0000:1A58       _vector_new_(void far*,unsigned int,unsigned long,unsigned int,...)
 22E3:0000 idle  DATASEG@
 0000:0291 idle  DGROUP@
 2286:0306       e087_Entry
 2286:03C6       e087_Shortcut
 2286:0430       e087_Trap
 0000:0000 idle  FIARQQ
 0000:0000 idle  FICRQQ
 0000:0000  Abs  FIDRQQ
 0000:0000  Abs  FIERQQ
 0000:0000 idle  FISRQQ
 0000:0000  Abs  FIWRQQ
 0000:0000 idle  FJARQQ
 0000:0000 idle  FJCRQQ
 0000:0000 idle  FJSRQQ
 0000:0E20 idle  FTOL@
 0000:0E20       F_FTOL@
 0000:1147       F_LDIV@
 0000:1156       F_LMOD@
 0000:114E       F_LUDIV@
 0000:115E idle  F_LUMOD@
 0000:11F5       F_LXLSH@
 0000:0FF6       F_LXMUL@
 0000:1216 idle  F_PADD@
 0000:1276 idle  F_PSBP@
 0000:1245 idle  F_PSUB@
 0000:100D       F_SCOPY@
 0000:1147 idle  LDIV@
 0000:1156 idle  LMOD@
 0000:114E idle  LUDIV@
 0000:115E idle  LUMOD@
 0000:11F5 idle  LXLSH@
 0000:0FF6 idle  LXMUL@
 0000:1144       N_LDIV@
 0000:1153       N_LMOD@
 0000:114B idle  N_LUDIV@
 0000:115B idle  N_LUMOD@
 0000:11F2       N_LXLSH@
 0000:1535       N_LXMUL@
 0000:1213       N_PADD@
 0000:154C       N_PCMP@
 0000:1273       N_PSBP@
 0000:1242 idle  N_PSUB@
 0000:1216 idle  PADD@
 0000:1276 idle  PSBP@
 0000:1245 idle  PSUB@
 0000:100D idle  SCOPY@
 0000:027A       _abort
 0000:22F0       _absread
 0000:2357       _abswrite
 22E3:17DC idle  _active_menu
 22E3:2FDC idle  _ALL_SYMBOLS
 1EBE:1316 idle  _arc
 0000:0E4C idle  _atexit
 0000:385C idle  _atoi
 0000:37E7       _atol
 22E3:3E5A idle  _AVector
 1EBE:1C83       _bar
 1EBE:1CA6 idle  _bar3d
 0000:386D       _bdos
 22E3:1AB2       _BGIPath
 0000:23BE       _bioskey
 0000:23E3       _biosprint
 22E3:17E0 idle  _BUFFER_SIZE
 22E3:05B7 idle  _CfgFile
 1EBE:1341       _circle
 1EBE:0F18       _cleardevice
 1EBE:0FCE idle  _clearviewport
 0000:389A       _close
 22E3:3E82 idle  _CloseCounter
 1EBE:0E6E       _closegraph
 0000:23F7       _clrscr
 22E3:3EC4 idle  _COL
 22E3:05AC idle  _COP
 0000:246C       _coreleft
 0000:25A4       _cprintf
 0000:3940 idle  _creatnew
 0000:3925 idle  _creattemp
 22E3:3FC4 idle  _CUR_DRIVE
 22E3:3DFC idle  _data
 22E3:05BF idle  _DataFile
 22E3:3CD8       _daylight
 0000:27C0       _delay
 1EBE:0671       _detectgraph
 22E3:3C49       _directvideo
 0000:51AA       _dostounix
 1EBE:1C43 idle  _drawpoly
 1EBE:1CE7       _ellipse
 22E3:3C9C       _environ
 0000:395B       _eof
 22E3:007F       _errno
 22E3:3D46 idle  _ev
 22E3:05B3 idle  _ExeFile
 0000:0FBB       _exit
 0000:2D93       _farcoreleft
 0000:2961       _farfree
 0000:2A75       _farmalloc
 0000:2BD9 idle  _farrealloc
 0000:39D2       _fclose
 0000:3A8A       _fflush
 0000:43BB       _fgetc
 0000:44A9 idle  _fgetchar
 0000:3B57       _fgets
 0000:3C53       _filelength
 1EBE:1D17 idle  _fillellipse
 1EBE:1C63 idle  _fillpoly
 0000:3BF3       _findfirst
 0000:3C26       _findnext
 1EBE:1F06 idle  _floodfill
 0000:3C94       _flushall
 0000:3EAD       _fopen
 0000:3EE2       _fprintf
 0000:49F7       _fputc
 0000:4B8C idle  _fputchar
 0000:3FF2       _fread
 0000:2961       _free
 0000:4102       _fseek
 0000:4182 idle  _ftell
 22E3:167A idle  _Ftime
 22E3:1A86 idle  _FUCurrentFont
 22E3:1A8A idle  _FUCurrentRef
 22E3:3ED2 idle  _FUerr
 22E3:1A84 idle  _FUON
 0000:4262       _fwrite
 1EBE:1D84 idle  _getarccoords
 1EBE:136D idle  _getaspectratio
 1EBE:1419       _getbkcolor
 0000:2DE3       _getch
 0000:2DFF       _getche
 1EBE:1408       _getcolor
 0000:1029       _getcurdir
 0000:44B5       _getcwd
 0000:1046       _getdate
 1EBE:1E04       _getdefaultpalette
 0000:10D8       _getdfree
 0000:106C       _getdisk
 1EBE:10CA idle  _getdrivername
 0000:45E2       _getenv
 0000:10BA       _getfat
 0000:10A5 idle  _getfatd
 1EBE:127F idle  _getfillpattern
 1EBE:122E idle  _getfillsettings
 0000:1101       _getftime
 1EBE:0E19 idle  _getgraphmode
 1EBE:20B7       _getimage
 1EBE:1176       _getlinesettings
 1EBE:1DCE       _getmaxcolor
 1EBE:1E42       _getmaxmode
 1EBE:10A4 idle  _getmaxx
 1EBE:10B7 idle  _getmaxy
 1EBE:10F0 idle  _getmodename
 1EBE:05D2 idle  _getmoderange
 1EBE:1513 idle  _getpalette
 1EBE:1DE9       _getpalettesize
 1EBE:2076       _getpixel
 0000:2EB8       _gettext
 1EBE:15F6 idle  _gettextsettings
 0000:1059       _gettime
 0000:1124 idle  _getvect
 1EBE:0FAF idle  _getviewsettings
 1EBE:1086 idle  _getx
 1EBE:1095 idle  _gety
 22E3:3E0A idle  _GMenus
 22E3:17CE idle  _GMpath
 0000:2E6F       _gotoxy
 1EBE:089F idle  _graphdefaults
 1EBE:0193 idle  _grapherrormsg
 1EBE:030D       _graphresult
 22E3:1A7A idle  _GRINIT
 22E3:1A7C idle  _GRMOUSE
 22E3:3EC0 idle  _GRX
 22E3:3EC2 idle  _GRY
 22E3:1A8E idle  _GWait
 0000:2F64       _harderr
 0000:2F76 idle  _hardresume
 0000:2F84       _hardretn
 22E3:05CB idle  _HelpFile
 22E3:2544 idle  _HelpItem
 0000:2459 idle  _highvideo
 22E3:3FC6       _Hist
 1EBE:1532       _imagesize
 22E3:3DFA idle  _index
 22E3:05BB idle  _IndexFile
 1EBE:0985       _initgraph
 22E3:3EB0 idle  _inregs
 1EBE:0BF9 idle  _installuserdriver
 1EBE:0CE7 idle  _installuserfont
 0000:30B8       _int86
 0000:30E9 idle  _int86x
 0000:3182       _ioctl
 0000:12E6       _isatty
 0000:4652       _itoa
 0000:31AB       _kbhit
 22E3:3E84 idle  _KeyBuffer
 22E3:3EC6 idle  _KOEF
 22E3:05A6       _LANG
 1EBE:1C20       _line
 1EBE:113B idle  _linerel
 1EBE:1114 idle  _lineto
 22E3:3ECE       _LINE_HEIGHT
 22E3:3ED0       _LINE_WIDTH
 22E3:3F26 idle  _ListEnterItem
 0000:245F idle  _lowvideo
 0000:1399       _lseek
 0000:469A idle  _ltoa
 09D0:000E       _main
 22E3:05CF       _MainMenuLeaveMode
 22E3:3D58 idle  _MainPath
 0000:2A6B       _malloc
 0000:46C2       _memccpy
 0000:46FB       _memcpy
 22E3:3EAC idle  _memhandler
 0000:47B4       _memmove
 0000:4743       _memset
 22E3:1A7E idle  _MesSwitch
 22E3:3D4C idle  _mh0
 22E3:3D4E idle  _mh1
 22E3:3D50 idle  _mh4
 22E3:3D52 idle  _mh5
 22E3:3D54 idle  _mh6
 22E3:3D56 idle  _mh7
 22E3:3D3E       _MouseIs
 1EBE:1066 idle  _moverel
 0000:31BD       _movetext
 1EBE:103F idle  _moveto
 0000:4762 idle  _movmem
 0000:2465 idle  _normvideo
 0000:3795       _nosound
 22E3:2C24 idle  _op
 0000:4802       _open
 1EBE:1615 idle  _outtext
 1EBE:1F7B       _outtextxy
 22E3:3DA8 idle  _Path
 22E3:3E02 idle  _pData
 22E3:05AF idle  _pfname
 1EBE:13A3 idle  _pieslice
 22E3:3DFE idle  _pIndex
 1EBE:18EE idle  _postdevice
 0000:0E15       _pow10
 22E3:3F25 idle  _PrinterReady
 0000:49C0       _printf
 22E3:3D42 idle  _PROTECT1
 22E3:3D44 idle  _PROTECT2
 22E3:3E06 idle  _pThemes
 0000:325A       _putch
 1EBE:1567       _putimage
 1EBE:2097       _putpixel
 0000:2F0E       _puttext
 22E3:05DD       _pViewer
 22E3:17D2 idle  _QGMenus
 22E3:1A82 idle  _RACTIVE_PAGE
 0000:4E74       _read
 0000:2BD2 idle  _realloc
 1EBE:11D8 idle  _rectangle
 1EBE:03F3 idle  _registerfarbgidriver
 1EBE:04AC idle  _registerfarbgifont
 1EBE:0E3C idle  _restorecrtmode
 22E3:3ED4 idle  _Rfkeys
 22E3:1A80 idle  _RVISUAL_PAGE
 22E3:3F38 idle  _save1
 22E3:3F3C idle  _save2
 22E3:3F40 idle  _save3
 22E3:17D4 idle  _savebuf
 22E3:3D40 idle  _SavedMouseIs
 1EBE:1D54       _sector
 0000:15D8       _segread
 1EBE:1A12       _setactivepage
 1EBE:142A idle  _setallpalette
 1EBE:138B idle  _setaspectratio
 1EBE:13CE       _setbkcolor
 0000:36F5       _setblock
 1EBE:1DAD       _setcolor
 0000:15F8       _setdate
 0000:1086       _setdisk
 1EBE:129F idle  _setfillpattern
 1EBE:124B       _setfillstyle
 0000:1622       _setftime
 1EBE:059B idle  _setgraphbufsize
 1EBE:0D91 idle  _setgraphmode
 1EBE:1195       _setlinestyle
 0000:471F idle  _setmem
 1EBE:14D0 idle  _setpalette
 1EBE:1E7D idle  _setrgbpalette
 1EBE:1663 idle  _settextjustify
 1EBE:16A4       _settextstyle
 0000:160D       _settime
 1EBE:1873 idle  _setusercharsize
 0000:4E77       _setvbuf
 0000:1133       _setvect
 1EBE:0F33 idle  _setviewport
 1EBE:19EF       _setvisualpage
 1EBE:1A38       _setwritemode
 0000:3769       _sound
 0000:4FD4       _sprintf
 22E3:17D8 idle  _statbuf
 22E3:17DE idle  _stathandler
 0000:16FF idle  _stime
 0000:5017       _strcat
 0000:5056       _strchr
 0000:5093       _strcmp
 0000:50C3       _strcpy
 0000:50EC       _strlen
 0000:510B       _strncpy
 0000:513C       _strstr
 0000:244E       _textattr
 0000:2435 idle  _textbackground
 0000:2420       _textcolor
 1EBE:1899 idle  _textheight
 0000:379C       _textmode
 1EBE:2028       _textwidth
 22E3:3DF8 idle  _themes
 22E3:05C3 idle  _ThemesFile
 0000:173F       _time
 22E3:3CD4       _timezone
 0000:1797       _toupper
 22E3:3F24 idle  _TryMore
 22E3:3CCC idle  _tzname
 0000:54D8       _tzset
 0000:467D idle  _ultoa
 0000:2E23 idle  _ungetch
 0000:52D4       _unixtodos
 0000:17C3       _unlink
 22E3:05D1       _VColors
 22E3:05A8 idle  _VER
 0000:4FF6 idle  _vsprintf
 0000:37C5 idle  _wherex
 0000:37D4 idle  _wherey
 0000:5932       _write
 22E3:05C7 idle  _ZastFile
 22E3:36F0 idle  __8087
 0000:1000 idle  __AHINCR
 0000:000C  Abs  __AHSHIFT
 22E3:3C8C idle  __argc
 22E3:3C8E idle  __argv
 22E3:385C       __atexitcnt
 22E3:4046       __atexittbl
 1EBE:1AFC       __autodetect
 22E3:32A4 idle  __backcolor
 22E3:321F       __BGI_ADD
 22E3:3082       __BGI_auto
 22E3:307E       __BGI_ovr
 0000:2CC9       __brk
 22E3:008B       __brklvl
 22E3:006B       __C0argc
 22E3:006D       __C0argv
 0000:2686 idle  __c0crtinit
 22E3:0071       __C0environ
 22E3:3C8B       __cChar
 0000:0FDC idle  __cexit
 22E3:3C8A       __cFlag
 0000:0E79       __chdrive
 0000:016A       __checknull
 0000:387D       __chmod
 0000:0157       __cleanup
 0000:38C2       __close
 0000:2472       __CPUTN
 0000:390D       __creat
 0000:26A3       __crtinit
 22E3:385E       __ctype
 0000:0000  Abs  __cvtfak
 0000:0FEA idle  __c_exit
 22E3:321B       __DDO_ADD
 22E3:3704       __default87
 22E3:3B2C       __doserrno
 0000:12D4       __DOSERROR
 22E3:3B2E idle  __dosErrorToSV
 0000:0F16       __dos_getdrive
 0000:0ED9       __dos_getfileattr
 0000:0F28       __dos_setdrive
 0000:0EF9 idle  __dos_setfileattr
 22E3:32A2       __drawcolor
 26F3:0000       __emu
 22E3:0075       __envLng
 22E3:0077       __envseg
 22E3:0079       __envSize
 0000:0FCA       __exit
 22E3:3960       __exitbuf
 22E3:3964       __exitfopen
 22E3:3968 idle  __exitopen
 0000:43A3       __fgetc
 22E3:32A3       __fillcolor
 22E3:32A6       __fillstyle
 0000:8087 idle  __floatconvert
 22E3:3B26       __fmode
 22E3:329A       __FON_ADD
 0000:0C9B       __fperror
 22E3:3B2A       __fpstklen
 0000:049F idle  __fpuint
 0000:158B       __fpure_error_
 0000:49DB idle  __fputc
 0000:4BA0       __FPUTN
 0000:4543       __getdcwd
 0000:0EAE       __getdrive
 0000:3E63 idle  __GETFP
 0000:2E41       __graphexit
 0000:2E4F       __graphfreemem
 0000:2E61       __graphgetmem
 1EBE:0329 idle  __GraphNotInstalled
 1EBE:22E0       __GRP_ovr
 1EBE:1BCF       __gr_cleardevice
 1EBE:1B6D       __gr_detectgraph
 22E3:3298 idle  __gr_ErrCode
 1EBE:1E21       __gr_getmodename
 1EBE:1AAB       __gr_imagesize
 1EBE:1C03       __gr_lineto
 1EBE:1BE6       __gr_moveto
 1EBE:20F4       __gr_putimage
 1EBE:19B0       __gr_restorecrtmode
 1EBE:1EC2       __gr_setallpalette
 1EBE:1E5E       __gr_setbkcolor
 1EBE:1A5B       __gr_setfillpattern
 1EBE:1F4B       __gr_setfillstyle
 1EBE:197A       __gr_setgraphmode
 1EBE:1EDD       __gr_setlinestyle
 1EBE:1EA3       __gr_setpalette
 1EBE:1A8E       __gr_settextjustify
 1EBE:1FB1       __gr_settextstyle
 1EBE:2002       __gr_setusercharsize
 1EBE:194E       __gr_setviewport
 1EBE:2055       __gr_textheight
 0000:3012 idle  __harderr
 0000:303E       __hardresume
 0000:3059       __hardretn
 22E3:0087       __heapbase
 22E3:008F       __heaptop
 22E3:370A       __huge_dble
 22E3:3706 idle  __huge_flt
 22E3:3712 idle  __huge_ldble
 22E3:371C idle  __indefinite
 1EBE:1BAA       __initdevice
 1EBE:1905       __installdevice
 22E3:005B idle  __Int0Vector
 22E3:005F idle  __Int4Vector
 22E3:0063 idle  __Int5Vector
 22E3:0067 idle  __Int6Vector
 0000:129B       __IOERROR
 0000:56C6       __ISDST
 22E3:3701       __LDT
 0000:04A3       __LDTRUNC
 22E3:32A5       __linestyle
 0000:12F7       __LONGTOA
 0000:13C2       __MKNAME
 0000:0293 idle  __MMODEL
 22E3:3CB2 idle  __monthDay
 22E3:40D4       __new_handler
 0000:43B8 idle  __Nfgetc
 22E3:3AFC       __nfile
 0000:2DFC idle  __Ngetche
 22E3:3B28       __notUmask
 0000:156D idle  __npure_error_
 0000:2E20 idle  __Nungetch
 0000:4971       __open
 22E3:3AFE       __openfd
 0000:3D92 idle  __OPENFP
 22E3:007D       __osmajor
 22E3:007E idle  __osminor
 22E3:007D idle  __osversion
 22E3:32AD idle  __OverScanColor
 0000:0D4C       __POW10
 22E3:3700       __protected
 22E3:007B       __psp
 0000:15A9       __read
 0000:3271       __REALCVT
 22E3:3CE6       __RealCvtVector
 1EBE:190A       __reinstalldevice
 0000:01C0       __restorezero
 0000:2D08       __sbrk
 22E3:3CEA idle  __ScanTodVector
 0000:33AB       __SCREENIO
 0000:345E       __SCROLL
 0000:0000  Abs  __setargv__
 0000:0000 idle  __setenvp__
 0000:1645       __setupio
 22E3:0081 idle  __StartTime
 22E3:329E       __StatOfs
 22E3:32A0       __StatSeg
 22E3:3BCC       __stklen
 0000:226A       __stpcpy
 22E3:396C       __streams
 0000:016B       __terminate
 22E3:3720 idle  __tiny_ldble
 0000:141F idle  __TMPNAM
 0000:0000 idle  __turboCrt
 0000:0000  Abs  __turboCvt
 0000:8087  Abs  __turboFloat
 0000:1379       __UTOA
 0000:33E7       __VALIDATEXY
 22E3:007D       __version
 22E3:3C3A       __video
 0000:25FB       __VideoInt
 0000:1D08       __VPRINTER
 0000:21CB       __VPTR
 0000:21F0       __VRAM
 0000:37BB       __wherexy
 0000:58F6       __write
 22E3:3C36       __wscroll
 0000:0A8F       __XCVT
 0000:5935       __xfclose
 0000:5972       __xfflush
 22E3:0085 idle  ___brklvl
 0000:0F3E       ___ErrorMessage
 0000:2821 idle  ___first
 0000:03CE idle  ___fpreset
 0000:2FE6       ___harderr
 0000:2823 idle  ___last
 1EBE:0178 idle  ___move
 0000:4DA3       ___read
 0000:2825 idle  ___rover
 22E3:40D8       ___SignalPtr
 0000:57A5       ___write

  Address         Publics by Value

 0000:0000  Abs  FIWRQQ
 0000:0000  Abs  FIDRQQ
 0000:0000  Abs  __setargv__
 0000:0000  Abs  FIERQQ
 0000:0000  Abs  __turboCvt
 0000:0000 idle  FIARQQ
 0000:0000 idle  FICRQQ
 0000:0000 idle  FISRQQ
 0000:0000 idle  FJARQQ
 0000:0000 idle  FJCRQQ
 0000:0000 idle  FJSRQQ
 0000:0000 idle  __turboCrt
 0000:0000  Abs  __cvtfak
 0000:0000 idle  __setenvp__
 0000:000C  Abs  __AHSHIFT
 0000:0157       __cleanup
 0000:016A       __checknull
 0000:016B       __terminate
 0000:01C0       __restorezero
 0000:027A       _abort
 0000:0291 idle  DGROUP@
 0000:0293 idle  __MMODEL
 0000:03CE idle  ___fpreset
 0000:049F idle  __fpuint
 0000:04A3       __LDTRUNC
 0000:0A8F       __XCVT
 0000:0C9B       __fperror
 0000:0D4C       __POW10
 0000:0E15       _pow10
 0000:0E20       F_FTOL@
 0000:0E20 idle  FTOL@
 0000:0E4C idle  _atexit
 0000:0E79       __chdrive
 0000:0EAE       __getdrive
 0000:0EC7       operator delete(void far*)
 0000:0ED9       __dos_getfileattr
 0000:0EF9 idle  __dos_setfileattr
 0000:0F16       __dos_getdrive
 0000:0F28       __dos_setdrive
 0000:0F3E       ___ErrorMessage
 0000:0FBB       _exit
 0000:0FCA       __exit
 0000:0FDC idle  __cexit
 0000:0FEA idle  __c_exit
 0000:0FF6       F_LXMUL@
 0000:0FF6 idle  LXMUL@
 0000:1000 idle  __AHINCR
 0000:100D       F_SCOPY@
 0000:100D idle  SCOPY@
 0000:1029       _getcurdir
 0000:1046       _getdate
 0000:1059       _gettime
 0000:106C       _getdisk
 0000:1086       _setdisk
 0000:10A5 idle  _getfatd
 0000:10BA       _getfat
 0000:10D8       _getdfree
 0000:1101       _getftime
 0000:1124 idle  _getvect
 0000:1133       _setvect
 0000:1144       N_LDIV@
 0000:1147       F_LDIV@
 0000:1147 idle  LDIV@
 0000:114B idle  N_LUDIV@
 0000:114E       F_LUDIV@
 0000:114E idle  LUDIV@
 0000:1153       N_LMOD@
 0000:1156       F_LMOD@
 0000:1156 idle  LMOD@
 0000:115B idle  N_LUMOD@
 0000:115E idle  LUMOD@
 0000:115E idle  F_LUMOD@
 0000:11F2       N_LXLSH@
 0000:11F5       F_LXLSH@
 0000:11F5 idle  LXLSH@
 0000:1213       N_PADD@
 0000:1216 idle  F_PADD@
 0000:1216 idle  PADD@
 0000:1242 idle  N_PSUB@
 0000:1245 idle  F_PSUB@
 0000:1245 idle  PSUB@
 0000:1273       N_PSBP@
 0000:1276 idle  PSBP@
 0000:1276 idle  F_PSBP@
 0000:129B       __IOERROR
 0000:12D4       __DOSERROR
 0000:12E6       _isatty
 0000:12F7       __LONGTOA
 0000:1379       __UTOA
 0000:1399       _lseek
 0000:13C2       __MKNAME
 0000:141F idle  __TMPNAM
 0000:1478 idle  set_new_handler(void(far*)())
 0000:14A2       operator new(unsigned int)
 0000:14E4       operator new(unsigned long)
 0000:1535       N_LXMUL@
 0000:154C       N_PCMP@
 0000:156D idle  __npure_error_
 0000:158B       __fpure_error_
 0000:15A9       __read
 0000:15D8       _segread
 0000:15F8       _setdate
 0000:160D       _settime
 0000:1622       _setftime
 0000:1645       __setupio
 0000:16FF idle  _stime
 0000:173F       _time
 0000:1797       _toupper
 0000:17C3       _unlink
 0000:17DB       _vector_delete_(void far*,unsigned int,unsigned long,unsigned int,...)
 0000:1A58       _vector_new_(void far*,unsigned int,unsigned long,unsigned int,...)
 0000:1D08       __VPRINTER
 0000:21CB       __VPTR
 0000:21F0       __VRAM
 0000:226A       __stpcpy
 0000:22F0       _absread
 0000:2357       _abswrite
 0000:23BE       _bioskey
 0000:23E3       _biosprint
 0000:23F7       _clrscr
 0000:2420       _textcolor
 0000:2435 idle  _textbackground
 0000:244E       _textattr
 0000:2459 idle  _highvideo
 0000:245F idle  _lowvideo
 0000:2465 idle  _normvideo
 0000:246C       _coreleft
 0000:2472       __CPUTN
 0000:25A4       _cprintf
 0000:25FB       __VideoInt
 0000:2686 idle  __c0crtinit
 0000:26A3       __crtinit
 0000:27C0       _delay
 0000:2821 idle  ___first
 0000:2823 idle  ___last
 0000:2825 idle  ___rover
 0000:2961       _farfree
 0000:2961       _free
 0000:2A6B       _malloc
 0000:2A75       _farmalloc
 0000:2BD2 idle  _realloc
 0000:2BD9 idle  _farrealloc
 0000:2CC9       __brk
 0000:2D08       __sbrk
 0000:2D93       _farcoreleft
 0000:2DE3       _getch
 0000:2DFC idle  __Ngetche
 0000:2DFF       _getche
 0000:2E20 idle  __Nungetch
 0000:2E23 idle  _ungetch
 0000:2E41       __graphexit
 0000:2E4F       __graphfreemem
 0000:2E61       __graphgetmem
 0000:2E6F       _gotoxy
 0000:2EB8       _gettext
 0000:2F0E       _puttext
 0000:2F64       _harderr
 0000:2F76 idle  _hardresume
 0000:2F84       _hardretn
 0000:2FE6       ___harderr
 0000:3012 idle  __harderr
 0000:303E       __hardresume
 0000:3059       __hardretn
 0000:30B8       _int86
 0000:30E9 idle  _int86x
 0000:3182       _ioctl
 0000:31AB       _kbhit
 0000:31BD       _movetext
 0000:325A       _putch
 0000:3271       __REALCVT
 0000:33AB       __SCREENIO
 0000:33E7       __VALIDATEXY
 0000:345E       __SCROLL
 0000:36F5       _setblock
 0000:3769       _sound
 0000:3795       _nosound
 0000:379C       _textmode
 0000:37BB       __wherexy
 0000:37C5 idle  _wherex
 0000:37D4 idle  _wherey
 0000:37E7       _atol
 0000:385C idle  _atoi
 0000:386D       _bdos
 0000:387D       __chmod
 0000:389A       _close
 0000:38C2       __close
 0000:390D       __creat
 0000:3925 idle  _creattemp
 0000:3940 idle  _creatnew
 0000:395B       _eof
 0000:39D2       _fclose
 0000:3A8A       _fflush
 0000:3B57       _fgets
 0000:3BF3       _findfirst
 0000:3C26       _findnext
 0000:3C53       _filelength
 0000:3C94       _flushall
 0000:3D92 idle  __OPENFP
 0000:3E63 idle  __GETFP
 0000:3EAD       _fopen
 0000:3EE2       _fprintf
 0000:3FF2       _fread
 0000:4102       _fseek
 0000:4182 idle  _ftell
 0000:4262       _fwrite
 0000:43A3       __fgetc
 0000:43B8 idle  __Nfgetc
 0000:43BB       _fgetc
 0000:44A9 idle  _fgetchar
 0000:44B5       _getcwd
 0000:4543       __getdcwd
 0000:45E2       _getenv
 0000:4652       _itoa
 0000:467D idle  _ultoa
 0000:469A idle  _ltoa
 0000:46C2       _memccpy
 0000:46FB       _memcpy
 0000:471F idle  _setmem
 0000:4743       _memset
 0000:4762 idle  _movmem
 0000:47B4       _memmove
 0000:4802       _open
 0000:4971       __open
 0000:49C0       _printf
 0000:49DB idle  __fputc
 0000:49F7       _fputc
 0000:4B8C idle  _fputchar
 0000:4BA0       __FPUTN
 0000:4DA3       ___read
 0000:4E74       _read
 0000:4E77       _setvbuf
 0000:4FD4       _sprintf
 0000:4FF6 idle  _vsprintf
 0000:5017       _strcat
 0000:5056       _strchr
 0000:5093       _strcmp
 0000:50C3       _strcpy
 0000:50EC       _strlen
 0000:510B       _strncpy
 0000:513C       _strstr
 0000:51AA       _dostounix
 0000:52D4       _unixtodos
 0000:54D8       _tzset
 0000:56C6       __ISDST
 0000:57A5       ___write
 0000:58F6       __write
 0000:5932       _write
 0000:5935       __xfclose
 0000:5972       __xfflush
 0000:8087  Abs  __turboFloat
 0000:8087 idle  __floatconvert
 059A:000A       Box(int,int,unsigned char far*,unsigned char far*,unsigned char far*,unsigned char far*,unsigned char far*,
 059A:02CE idle  BOX_KEY::BOX_KEY()
 059A:033B idle  BOX_KEY::SetLTBCorner(int,int,int)
 059A:035D idle  BOX_KEY::SetKey(unsigned char far*,int,int)
 059A:0387 idle  BOX_KEY::GetLength()
 059A:03A4 idle  BOX_KEY::IfMyKey(int,int,int)
 059A:0447 idle  BOX_KEY::Draw(int,int,int,int,int)
 059A:051A idle  BOX::BOX()
 059A:06E4 idle  BOX::InitBox()
 059A:071E idle  BOX::SetHorizontal(int,int,int,int,int,int)
 059A:0765 idle  BOX::SetVertical(int,int,int,int,int)
 059A:07A1 idle  BOX::SetKeyMargins(int,int)
 059A:07BC idle  BOX::SetMessageString(unsigned char far*)
 059A:0801 idle  BOX::SetColors(int,int,int)
 059A:0827 idle  BOX::SetShadow(int,int,int)
 059A:084D idle  BOX::SetBoxKey(unsigned char far*,int,int)
 059A:08D9 idle  BOX::SetBoxKeyColors(int,int,int,int,int,int)
 059A:0920 idle  BOX::Draw(int,int)
 059A:0D66 idle  BOX::DrawKey(int)
 059A:0E09 idle  BOX::DefineMaxMessageLength()
 059A:0E6F idle  BOX::CountBoxParams()
 059A:0FCE idle  BOX::DrawMessage(int)
 059A:107D idle  BOX::DefineKeyLeft(int)
 059A:112E idle  BOX::Monitor()
 059A:12B8       BOX::~BOX()
 059A:1302       BOX_KEY::~BOX_KEY()
 06CC:0003 idle  ENTER_LIST::SetStatusType(unsigned char,int,int)
 06CC:0035       ENTER_LIST::IfMyKey(int,int,int)
 06CC:0098       ENTER_LIST::Monitor()
 06CC:0132       ENTER_LIST::Manage(int,int,int)
 06CC:0C49 idle  ENTER_LIST::GetStringField(int,int far*,int far*,int far*,int far*)
 06CC:0CD7 idle  ENTER_LIST::DrawStringFull(int,int)
 06CC:0D66 idle  ENTER_LIST::LineOfString(int)
 06CC:0D9A idle  ENTER_LIST::IfStringIsOnPage(int)
 06CC:0DE5 idle  ENTER_LIST::IfMyMouse(int,int)
 06CC:0F53 idle  ENTER_LIST::DefineStringColor(int,unsigned char)
 06CC:0FFB idle  VIEW_LIST::Monitor()
 06CC:1087 idle  VIEW_LIST::Manage(int,int,int)
 06CC:13CC idle  SLIDEBAR::SLIDEBAR()
 06CC:1472 idle  SLIDEBAR::DrawSlideBar()
 06CC:175A idle  SLIDEBAR::DrawButton(int)
 06CC:186D idle  SLIDEBAR::IfMyMouse(int,int)
 06CC:18AC idle  SLIDEBAR::DefinePercent(int)
 06CC:196F       LIST::LIST(int)
 06CC:1BAF       LIST::~LIST()
 06CC:1CBC       LIST::SetData(unsigned char far*far*,int,unsigned char far*)
 06CC:1D98       LIST::SetABCOrder(int,unsigned char far*)
 06CC:1DED       LIST::SetABCSearchBuffer(int,int)
 06CC:1E5E       LIST::SetColumns(int,int)
 06CC:1F15       LIST::SetMargins(int,int,int)
 06CC:1F6B idle  LIST::SetStatusType(unsigned char,int)
 06CC:1FAB idle  LIST::DefineStringColor(int)
 06CC:201A idle  LIST::IfMyKey(int,int,int)
 06CC:20D4 idle  LIST::GetNumInABC(int)
 06CC:2149 idle  LIST::FindStringAccordingToSearchBuffe(int,int)
 06CC:2372 idle  LIST::ClearSearchBuffer()
 06CC:23C1 idle  LIST::OpenSearchBufferWindow()
 06CC:2463 idle  LIST::CloseSearchBufferWindow()
 06CC:24ED idle  LIST::RepaintSearchBuffer()
 06CC:25AF idle  LIST::DrawList()
 06CC:28EF idle  LIST::DrawScreen()
 06CC:2AEB idle  LIST::DrawString(int,int)
 06CC:2B3F idle  LIST::DefineMaxStringLength()
 06CC:2BC4 idle  LIST::DefineStringCoordinates(int,int far*,int far*)
 06CC:2C8D idle  LIST::CreateABCIndex()
 06CC:2D86 idle  LIST::DefineSearchBufferCoordinates(int far*,int far*,int far*,int far*)
 06CC:2E04 idle  LIST::beep()
 06CC:2E22       ENTER_LIST::DrawList()
 06CC:2E3E       ENTER_LIST::DrawScreen()
 06CC:2E6A       ENTER_LIST::LineOfCurstring()
 06CC:2E87       LIST::GetDirection()
 06CC:2E96       LIST::IfABCOrderExists()
 06CC:2EB1       LIST::GetVertInterval()
 06CC:2EC0       SLIDEBAR::~SLIDEBAR()
 06CC:2EE1       LIST::GetString(int)
 06CC:2F00       LIST::SetBarTop(int)
 06CC:2F1A       LIST::SetBarBottom(int)
 06CC:2F34       LIST::SetBarRight(int)
 06CC:2F4E       LIST::DrawSlideBar()
 06CC:2F64       SLIDEBAR::SetBarTop(int)
 06CC:2FB3       SLIDEBAR::SetBarBottom(int)
 06CC:3002       SLIDEBAR::SetBarRight(int)
 09D0:000E       _main
 09D0:0137 idle  menu()
 09D0:0A11 idle  LeaveMainMenu()
 09D0:0A3F idle  FinishAll()
 09D0:0B05 idle  finish()
 09D0:0B85 idle  stop()
 09D0:0BA1 idle  CheckFiles()
 09D0:0E24 idle  OpenDataFiles()
 09D0:0F75 idle  InitViewer()
 09D0:0FF2 idle  ActivateViewer()
 09D0:109C idle  UserChooseArt()
 09D0:1117 idle  UserChooseTheme()
 09D0:11D8 idle  UserChooseFromHistory()
 09D0:1253       ClearScreen()
 09D0:1296 idle  AboutProgram()
 09D0:14D7 idle  AboutSystem()
 09D0:182A idle  LoadConfiguration()
 09D0:1A14 idle  SaveConfiguration()
 09D0:1B6C idle  AddColorStrings(int)
 09D0:1D5B idle  stmes(int)
 09D0:1E63 idle  dummy()
 09D0:1E6C idle  WarningIfOldDate()
 09D0:1F0C idle  StopIfWrongVersion()
 09D0:1F76 idle  GetVersion()
 09D0:1FEA idle  SetDefaultColors()
 09D0:20CC idle  zast()
 09D0:247E idle  GetPath(const unsigned char far*)
 09D0:24D6       GMEVENT::GMEVENT()
 09D0:2519       GMEVENT::~GMEVENT()
 09D0:253A       BufRead::SetFileHandler(int)
 09D0:2556       TGraphView::SetMouseMode(int)
 0C26:0006       BufRead::BufRead()
 0C26:0072 idle  BufRead::AllocMem()
 0C26:00BF idle  BufRead::~BufRead()
 0C26:00F9 idle  BufRead::FreeMem()
 0C26:0110       BufRead::ReadByte(int far*)
 0C26:0172       BufRead::RenewBuf()
 0C26:01DD idle  BufWrite::BufWrite()
 0C26:0241 idle  BufWrite::AllocMem()
 0C26:028E idle  BufWrite::~BufWrite()
 0C26:02DE idle  BufWrite::FreeMem()
 0C26:02F5       BufWrite::WriteByte(int)
 0C26:0350 idle  BufWrite::RenewBuf()
 0C26:03BD       BufRead::FF()
 0C26:03C9       BufWrite::FF()
 0C63:0005 idle  CordInts2String(int,int,unsigned char far*,unsigned char)
 0C63:00C6 idle  CordInts3String(int,int,int,unsigned char far*,unsigned char)
 0C63:0125 idle  CordDouble2String(double,unsigned char far*,unsigned char)
 0C63:01E7 idle  CordString2Ints(unsigned char far*,int far*,int far*)
 0C63:0334 idle  CordString3Ints(unsigned char far*,int far*,int far*,int far*)
 0C63:047B idle  CordString2Double(unsigned char far*,double far*)
 0C63:05D8 idle  GetCurrentTime()
 0C63:060A idle  GetPassedTime()
 0C63:0661       Seconds2String(long,unsigned char far*,unsigned char far*)
 0C63:07A9 idle  Date2String(int,int,int,unsigned char far*,unsigned char far*)
 0C63:0964 idle  Date2StringE(int,int,int,unsigned char,unsigned char far*,unsigned char far*)
 0C63:09DB idle  String2Date(unsigned char far*,int far*,int far*,int far*,unsigned char far*)
 0C63:0B87 idle  String2DateE(unsigned char far*,int far*,int far*,int far*,unsigned char far*,unsigned char far*)
 0C63:0C1D idle  CordString2Int(unsigned char far*,int far*)
 0C63:0D89 idle  CordInt2String(int,unsigned char far*,unsigned char)
 0C63:0DFF idle  Time2String(int,int,unsigned char far*,unsigned char far*)
 0C63:0F0E idle  String2Time(unsigned char far*,int far*,int far*,unsigned char far*)
 0C63:1012       atoi(const unsigned char far*)
 0D65:0006       InitMenu(int far*,int,int,unsigned char,int,int,unsigned char far*,unsigned char far*,unsigned char far*,int,
 0D65:03A8 idle  DestroyMenu(int)
 0D65:0480       DestroyAllMenus()
 0D65:0533       InitMenuItem(int,unsigned char far*,unsigned char far*,unsigned char far*,int,int,int,int,int(far*)(),int)
 0D65:08AC idle  InitYesNoItem(int,unsigned char far*,unsigned char far*,unsigned char far*,int,int,int,int far*,int,int)
 0D65:0DA3       InitSwitchItem(int,unsigned char far*,unsigned char far*,unsigned char far*,int,int,int,int far*,int,int)
 0D65:1056       AddStringToItem(int,unsigned char far*,unsigned char far*,unsigned char far*)
 0D65:12B6       AddLastStringToItem(int,unsigned char far*,unsigned char far*,unsigned char far*)
 0D65:171A       InitFuncItem(int,unsigned char far*,unsigned char far*,unsigned char far*,int,int,int,int(far*)(),int,int,int
 0D65:1A94 idle  InitStringItem(int,unsigned char far*,unsigned char far*,unsigned char far*,int,int,int,unsigned char far*,
 0D65:2018 idle  SetEnterStringColors(int,int,int,int)
 0D65:2056 idle  MoveMenu(int,int,int)
 0D65:20CE       HideItem(int,int)
 0D65:2133       RebirthItem(int,int)
 0D65:2198       SwitchReset(int,int)
 0D65:2288       SetExitKey(int,int)
 0D65:22A0 idle  AddStringToStringItem(unsigned char far*,unsigned char far*,int)
 0D65:2350 idle  DrawMenu(int,int)
 0D65:27EA idle  DrawItem(int,int)
 0D65:2AEF idle  DefineItemPosition(int,int,int far*,int far*,int far*,int far*)
 0D65:2CEE idle  WhichItemPosition(int,int,int)
 0D65:2D80 idle  DrawBordStr(int,int,int,int,int,int,unsigned char far*)
 0D65:2E0E idle  GetStrSumWidth(int,int)
 0D65:2E53 idle  GetBordLength(int,int far*,int far*)
 0D65:2EB7       ActivateMenu(int)
 0D65:399F idle  YesNoSet(unsigned char far*,int far*,int)
 0D65:3A49 idle  SwitchSet(unsigned char far*,STRINGS far*,int,int)
 0D65:3B48 idle  InitSaveBuf()
 0D65:3CDC idle  SaveMenu(long far*,long far*,int far*,int,int,int,int)
 0D65:3DA0 idle  RestoreMenu(int)
 0D65:3FD7 idle  MemoryMove(long,long)
 0D65:4099 idle  FindNextMenu(long)
 0D65:4141 idle  LastSaveBufCoord(long far*,long far*)
 0D65:4242 idle  SaveBufferOnDisk(int)
 0D65:433F idle  GetSwapFileName(unsigned char far*,int,int,unsigned char far*)
 0D65:43E2 idle  TakeSwapFileName(int,unsigned char far*,int,unsigned char far*)
 0D65:44BB idle  RestoreLevels(int,int)
 0D65:453C idle  SaveLevels(int,int)
 0D65:45C4 idle  GetUpperMenuHandler(int,int)
 0D65:4607 idle  IfHighLet(int,int)
 0D65:46BB idle  SetHighLet(int,int)
 0D65:475B idle  AddKeyToBuf(int)
 0D65:47AC idle  GetKeyFromBuf()
 0D65:47E3 idle  GetEvent()
 0D65:4844 idle  MouseOperate(int,int)
 0D65:4992       SetSaveBufferSize(int,int)
 0D65:49DA       SetStatusColor(int,int,int)
 0D65:4A05       AddStatus(int,int,unsigned char far*,unsigned char far*,unsigned char far*)
 0D65:4A91 idle  ShowStatus(int,int)
 0D65:4C46 idle  SaveStatusScreen()
 0D65:4C9B idle  RestoreStatusScreen()
 0D65:4CEB idle  menusound(int)
 0D65:4D19 idle  badkey()
 0D65:4D37 idle  msound(int)
 0D65:4D54 idle  MenuInf()
 1241:000E       Ropen(int)
 1241:01EF       Rclose()
 1241:022D idle  Rexit(int)
 1241:0246 idle  Rclr(int)
 1241:0259       Rtext(int,int,unsigned char far*)
 1241:02C1       Rtextc(int,int,unsigned char far*,int)
 1241:02E2       Rtext_with_high_let(int,int,unsigned char far*,int,int)
 1241:03B2 idle  Rtext_with_break(int,int,int,unsigned char far*)
 1241:0413 idle  Rsym(int,int,unsigned char)
 1241:043B idle  Rsymc(int,int,unsigned char,int)
 1241:045A idle  Rdigit(int,int,int)
 1241:048A       Rdigitc(int,int,int,int)
 1241:04BD idle  Rdigit_right(int,int,int,int)
 1241:0524       Rcol(int)
 1241:053F idle  Rbcol(int)
 1241:0559       Rline(int,int,int,int)
 1241:05B3       Rlinec(int,int,int,int,int)
 1241:05D3 idle  RThickLinec(int,int,int,int,int,unsigned char,unsigned char)
 1241:062E       Rbarc(int,int,int,int,int,int)
 1241:0654 idle  Rbar(int,int,int,int)
 1241:06AE idle  Rram(int,int,int,int)
 1241:06FF       Rramc(int,int,int,int,int)
 1241:071F idle  Rcircle(int,int,int)
 1241:0775 idle  Rcirclec(int,int,int,int)
 1241:0792 idle  Rputpixel(int,int,int)
 1241:07DF idle  Rgetpixel(int,int)
 1241:0816 idle  RSwitchVisualPage()
 1241:0845 idle  RSwitchActivePage()
 1241:086A       Rconvert(int far*,int far*)
 1241:090D       Rbackconvert(int far*,int far*)
 1241:09A1 idle  RPutLineClear(int,int,unsigned char far*,int,int)
 1241:0A04 idle  RPutLine(int,int,unsigned char far*,int,int)
 1241:0A5C idle  RPutLineWithHighSym(int,int,unsigned char far*,int,int,int,int)
 1241:0AB8 idle  RPutLineWithCursor(int,int,unsigned char far*,int,int,int,int,int)
 1241:0B46       RPaintString(unsigned char far*,int,int,int,int,int,int,int,int,int,int)
 1241:0BAB       Rgetimage(int,int,int,int,unsigned char far*)
 1241:0C2A       Rputimage(int,int,unsigned char far*,int)
 1241:0C89       Rimagesize(int,int,int,int)
 1241:0D46       gerrmes(int,unsigned char far*,int,int)
 1241:112E       Rmessage(unsigned char far*,int,int,int)
 1241:134C       termes(unsigned char far*,unsigned char far*)
 1241:1394 idle  getsym_filtered(int)
 1241:14D6       getsym()
 1241:1503       RbarcM(int,int,int,int,int,int)
 1241:152B idle  RsymcM(int,int,unsigned char,int)
 1241:154E       RtextcM(int,int,unsigned char far*,int)
 1241:1573       RramcM(int,int,int,int,int)
 1241:1598       Rmouse_set()
 1241:1692       Rmouse_status(int far*,int far*)
 1241:174E       Rmouse_hide()
 1241:178F       Rmouse_show()
 1241:17D0 idle  Rmouse_page(int)
 1241:181D       Revent(int far*,int far*)
 1241:19C3       RInitFkey(int,int,int,unsigned char far*,int,int,int,int)
 1241:1A91       RSwitchFkey(int,int)
 1241:1BDC idle  RSwitchAllFkeys(int)
 1241:1D0C       RRemoveFkey(int)
 1241:1DC1 idle  RSetFkey(int,int,int,int,int,int,unsigned char far*,int,int,int)
 1241:1FA7       REnterString(unsigned char far*,int,int,int,int,int,int,int,int,int)
 1241:2515 idle  REnterStringBox(unsigned char far*,int,int,int,int,int,int,int,int,int,int,int,unsigned char far*,
 1241:277E idle  IfDate(unsigned char far*)
 1241:29A1 idle  days_in_month(int,int)
 1241:2A2A idle  REnterFilename(unsigned char far*,int,int,int,int,int,int)
 1241:2AC6 idle  FUOn()
 1241:2AD1 idle  FUOff()
 1241:2ADC idle  FUSetCurrentFont(FUFONT far*)
 1241:2AEE idle  FUSetCurrentRef(FUREF far*)
 1241:2B00 idle  FUSetRef(FUREF far*,int,unsigned char far*,unsigned char far*)
 1241:2B30 idle  FUIfinRef(int)
 1241:2B7C idle  FUPutSym(int,int,int,int)
 1241:2C11 idle  FUPutSymc(int,int,int,int,int)
 1241:2C3A idle  FUtext(int,int,unsigned char far*)
 1241:2D55 idle  FUConvertC(unsigned char far*)
 1241:2E94 idle  FUPrintSym(int,int)
 1241:2EF1 idle  FULoadFont(FUFONT far*,int)
 1241:301A idle  FUReleaseFont(FUFONT far*)
 1241:3050 idle  RPutSym(int,int,unsigned char far*,int,int)
 1241:30D3 idle  RPrintSym(unsigned char far*,int,int)
 1241:3378 idle  GWaitInit(int,int,int,int,int,int,int,int,int)
 1241:3543 idle  GWaitChange(int)
 1241:36DE idle  GWaitClose()
 1241:373B idle  Rsound(int,int)
 15B6:0007 idle  TFullRef::TFullRef(unsigned char,int,int,int,int,int,TFullRef far*)
 15B6:008D       ShowTheme(BufRead far*,BufRead far*,int)
 15B6:0411       ChooseTheme(BufRead far*)
 15B6:0755       TGraphView::TGraphView(BufRead far*,BufRead far*,BufRead far*,int,int,int,int,int,int,int)
 15B6:0938 idle  TGraphView::~TGraphView()
 15B6:09A6 idle  TGraphView::DelOldInfo()
 15B6:0A87 idle  TGraphView::setrefs()
 15B6:0D38 idle  TGraphView::InitViewerKeys()
 15B6:0ECB idle  TGraphView::SwitchViewerKeys()
 15B6:10B5 idle  TGraphView::SwitchViewerKeysOff()
 15B6:1146 idle  TGraphView::RemoveViewerKeys()
 15B6:11B9 idle  TGraphView::ChangeArt(int)
 15B6:1274 idle  TGraphView::Return()
 15B6:1395 idle  TGraphView::SetUserColors()
 15B6:13DC       TGraphView::view()
 15B6:151E       TGraphView::show()
 15B6:1674 idle  TGraphView::keyanalisys()
 15B6:1A85 idle  TGraphView::gotoline(int)
 15B6:1B08 idle  TGraphView::pagedown()
 15B6:1BB5 idle  TGraphView::pageup()
 15B6:1C69 idle  TGraphView::movedown()
 15B6:1D6B idle  TGraphView::moveup()
 15B6:1E3E idle  TGraphView::NameNumOut()
 15B6:1EDE idle  TGraphView::InsRefs(int,int)
 15B6:20C9 idle  TGraphView::InsActRef()
 15B6:22A2       TGraphView::ChooseArt()
 15B6:25ED       TGraphView::ChooseArtFromHistory()
 15B6:2933 idle  TGraphView::UnInsActRef()
 15B6:2B0C idle  TGraphView::ClearClient()
 15B6:2BD2 idle  TGraphView::DrawBord()
 15B6:2CF2       TViewerHistory::TViewerHistory()
 15B6:2D3A       TViewerHistory::Clear()
 15B6:2D56       TViewerHistory::~TViewerHistory()
 15B6:2D8B idle  TViewerHistory::AppendLast(int,int,int)
 15B6:2F8A idle  TGraphView::VErrorReact(int)
 15B6:300E idle  PreparePrinter()
 15B6:305D idle  prnerr(int,int,int,int)
 15B6:3125       TRef::TRef(unsigned char,int)
 15B6:3161       ENTER_LIST::ENTER_LIST(int)
 15B6:31C1       ENTER_LIST::~ENTER_LIST()
 15B6:31FB       LIST::SetLTCorner(int,int)
 15B6:3244       LIST::SetRBCorner(int,int)
 15B6:328D       LIST::SetBarWidth(int)
 15B6:32A7       ENTER_LIST::SetColors(int,int,int,int)
 15B6:32D6       LIST::SetBorder(int,int)
 15B6:32F1       LIST::SetDirection(int)
 15B6:3301       LIST::SetHelpItem(int)
 15B6:3311       LIST::SetBarButtonHeight(int)
 15B6:332B       LIST::SetBarColors(int,int,int,int,int)
 15B6:3351       TRef::clear()
 15B6:3366       TFullRef::~TFullRef()
 15B6:33AA       SLIDEBAR::SetBarHeight(int)
 15B6:33F9       SLIDEBAR::SetBarWidth(int)
 15B6:3449       LIST::SetColors(int,int)
 15B6:3462       SLIDEBAR::SetBarButtonHeight(int)
 15B6:348A       SLIDEBAR::SetBarColors(int,int,int,int,int)
 1902:0001       readHalf(BufRead far&,int far*)
 1902:0081 idle  writeHalf(BufWrite far&,int)
 1902:0131 idle  readByte(BufRead far&,int far*)
 1902:018D idle  writeByte(BufWrite far&,int)
 1902:01DE       BufRead::Rew()
 1902:01EA       BufWrite::Rew()
 1921:0006       HInitHelp(unsigned char far*,int,int,int,int,int,int,int,int,int,int,int,int)
 1921:0245       HCloseHelp()
 1921:0274       HShowHelp(int)
 1921:06B8 idle  HLoadHelp(int)
 1921:0879 idle  HShowHelpPage(int)
 1921:0A9F idle  HShowHelpString(int,int,unsigned char far*)
 1921:0C1C idle  HAddEntry(int,int,int,int,unsigned char far*)
 1921:0DCF idle  HShowEntry(int,unsigned char)
 1921:0E88 idle  HAddMem(int)
 1A10:000F idle  ShowList(unsigned char far*far*,int,int,int,int,int,int,int,int,int,int,int,int,int,int)
 1A10:0668 idle  PaintString(unsigned char far*far*,int,int,int,int,int,int,int,int,int,int)
 1A10:06A6 idle  InitListEnterItem(int,int,int,int,int,int,int,int)
 1A10:06DB idle  SetListEnterItem(int,int)
 1A10:0754 idle  ListDir(unsigned char far*,unsigned char far*,unsigned char far*,int,int)
 1A10:0C51 idle  ReducePath(unsigned char far*,int)
 1A10:0D1A idle  ShowPath(unsigned char far*,int,int,int)
 1A10:0DA5 idle  SelectFile(unsigned char far*,unsigned char far*,unsigned char far*,int,int,int)
 1A10:10AC idle  SelectDrive(int,int,int)
 1A10:12DB idle  Dget(unsigned char far*,unsigned char far*,unsigned char far*,int far*)
 1A10:1358 idle  Dgetfiles(unsigned char far*,unsigned char far*,unsigned char far*,unsigned char)
 1A10:14C2 idle  ClearListDirScreen(int,int,int,int)
 1A10:1582 idle  ldirmes(int)
 1B77:0007       setEGA()
 1B77:002F idle  setOperation(int)
 1B77:003A idle  openScreen(unsigned char)
 1B77:0069 idle  closeScreen()
 1B77:0092 idle  writePixel(unsigned int,unsigned int)
 1B77:00E7 idle  EGAWriteLinePlanes(unsigned char far*,int,int,int,int)
 1B77:0395 idle  setPalette(unsigned char,unsigned char,unsigned char,unsigned char)
 1B77:042F idle  PCXGetSize(unsigned char far*,int far*,int far*,int far*,int far*)
 1B77:04BF idle  PCXSetPalette(unsigned char far*)
 1B77:058C       PCXWrite(unsigned char far*)
 1B77:07FF idle  EGAReadLine(unsigned char far*,int,int,int)
 1B77:0994 idle  PCXSave(unsigned char far*)
 1C3F:000E idle  DefineHardData(unsigned int far*,unsigned int far*)
 1C3F:00D8 idle  IfSameHard(int,int)
 1C3F:018C idle  UpdatePsw(unsigned char far*,int,unsigned int,int,unsigned int)
 1C3F:02BD idle  ReadPsw(unsigned char far*,int,unsigned int far*,int,unsigned int far*)
 1C3F:0395 idle  DiskSpace(int)
 1C3F:03DD idle  AllFilesSpace(unsigned char)
 1C3F:048C idle  ReadBoot(int,int)
 1C3F:04F8 idle  WriteBoot(int,int,unsigned char)
 1C3F:0582       Start()
 1C3F:0651 idle  MakeKeyDisk(int)
 1CA6:000B       TextScreen::TextScreen(int,int,int,int,int,int)
 1CA6:0180 idle  TextScreen::SetColors(int,int,int,int,int,int)
 1CA6:01C1 idle  TextScreen::TextToPixel(int far*,int far*)
 1CA6:01F9       TextScreen::PutLine(long,unsigned char far*,int,int)
 1CA6:032F idle  TextScreen::ClearLine(int)
 1CA6:03DA       TextScreen::PutTextBackground(int,int,int,int)
 1CA6:0472       TextScreen::GetTextRect(int,int,int,int far*,int far*,int far*,int far*)
 1CA6:04F3       TextScreen::ScrollUp(unsigned char far*)
 1CA6:0564       TextScreen::ScrollDown(unsigned char far*)
 1CA6:05D2 idle  TextScreen::SetMoveMode()
 1CA6:05ED idle  TextScreen::UnSetMoveMode()
 1CA6:05F9 idle  TextScreen::MoveLineUp(int)
 1CA6:0675 idle  TextScreen::MoveLineDown(int)
 1CA6:06F1 idle  MemMoveLineUp(int,int,int,int,int)
 1CA6:0721 idle  MemMoveLineDown(int,int,int,int,int)
 1CA6:0751       TVScroller::TVScroller(int,int,int,int,int,int,int)
 1CA6:07DF       TVScroller::SetPos(float)
 1CA6:080F       TVScroller::Draw()
 1CA6:0A29 idle  TVScroller::ShowHead()
 1CA6:0AA5 idle  TVScroller::HideHead()
 1CA6:0ADC       TVScroller::Analisys(int,int)
 1D5C:000D idle  TRef::TRef()
 1D5C:0046       TArticle::TArticle(BufRead far*,BufRead far*)
 1D5C:0103 idle  TArticle::DelOldInfo()
 1D5C:01AB       TArticle::ChangeArt(int)
 1D5C:01F8       TArticle::~TArticle()
 1D5C:0221 idle  TArticle::ReadNamePosition(int,long far*)
 1D5C:02B4 idle  TArticle::ReadTextRef(long)
 1D5C:047F       BufRead::bigRew()
 1DA7:0001       writemem(unsigned char far*,unsigned char far*,long)
 1DA7:013F       readmem(unsigned char far*,unsigned char far*)
 1DA7:027F       FindFreeDrive(long)
 1DA7:02B7       diskspace(int)
 1DA7:02FD idle  lastfilechoise(unsigned char far*,unsigned char far*)
 1DA7:03A8 idle  Path2Name(unsigned char far*,unsigned char far*)
 1DA7:0475       CompareStrings(const unsigned char far*,const unsigned char far*,int,int)
 1DA7:0558 idle  CompareSymbols(const unsigned char,const ...
 1DA7:05C4       ftoupper(int)
 1E08:000D idle  GoToChar(BufRead far&,unsigned char)
 1E08:0054       ReadInt(BufRead far&,int far*)
 1E08:00A7 idle  WriteInt(BufWrite far&,int)
 1E08:0108 idle  ReadString(BufRead far&,unsigned char far*)
 1E08:015A       ReadName(BufRead far&,unsigned char far*)
 1E08:01B9       ReadLong(BufRead far&,long far*)
 1E08:0264 idle  UncodeChar(int far*,int)
 1E08:03A6       ReadCodedLine(BufRead far&,unsigned char far*)
 1E08:049C idle  GetArtName(BufRead far*,int,unsigned char far*)
 1E08:0516       GetArtNum(BufRead far*,unsigned char far*,int far*)
 1E08:05A2       GetThNum(BufRead far*,unsigned char far*,int far*)
 1E08:05F9       GetThName(BufRead far*,unsigned char far*,int)
 1E08:063E idle  GetNextThNameNum(BufRead far*,unsigned char far*,int far*)
 1E08:06B9 idle  GetNextArtNameNum(BufRead far*,unsigned char far*,int far*)
 1E08:071F       GetArtNamesList(BufRead far*,unsigned char far*far*,int far*)
 1E08:07F8       GetThNamesList(BufRead far*,unsigned char far*far*,int far*)
 1E08:08D1       GetHistoryList(BufRead far*,unsigned char far*far*,int far*)
 1E08:099D       GetArtNamesFromTh(int,BufRead far*,BufRead far*,unsigned char far*far*,int far*)
 1EBE:0178 idle  ___move
 1EBE:0193 idle  _grapherrormsg
 1EBE:030D       _graphresult
 1EBE:0329 idle  __GraphNotInstalled
 1EBE:03F3 idle  _registerfarbgidriver
 1EBE:04AC idle  _registerfarbgifont
 1EBE:059B idle  _setgraphbufsize
 1EBE:05D2 idle  _getmoderange
 1EBE:0671       _detectgraph
 1EBE:089F idle  _graphdefaults
 1EBE:0985       _initgraph
 1EBE:0BF9 idle  _installuserdriver
 1EBE:0CE7 idle  _installuserfont
 1EBE:0D91 idle  _setgraphmode
 1EBE:0E19 idle  _getgraphmode
 1EBE:0E3C idle  _restorecrtmode
 1EBE:0E6E       _closegraph
 1EBE:0F18       _cleardevice
 1EBE:0F33 idle  _setviewport
 1EBE:0FAF idle  _getviewsettings
 1EBE:0FCE idle  _clearviewport
 1EBE:103F idle  _moveto
 1EBE:1066 idle  _moverel
 1EBE:1086 idle  _getx
 1EBE:1095 idle  _gety
 1EBE:10A4 idle  _getmaxx
 1EBE:10B7 idle  _getmaxy
 1EBE:10CA idle  _getdrivername
 1EBE:10F0 idle  _getmodename
 1EBE:1114 idle  _lineto
 1EBE:113B idle  _linerel
 1EBE:1176       _getlinesettings
 1EBE:1195       _setlinestyle
 1EBE:11D8 idle  _rectangle
 1EBE:122E idle  _getfillsettings
 1EBE:124B       _setfillstyle
 1EBE:127F idle  _getfillpattern
 1EBE:129F idle  _setfillpattern
 1EBE:1316 idle  _arc
 1EBE:1341       _circle
 1EBE:136D idle  _getaspectratio
 1EBE:138B idle  _setaspectratio
 1EBE:13A3 idle  _pieslice
 1EBE:13CE       _setbkcolor
 1EBE:1408       _getcolor
 1EBE:1419       _getbkcolor
 1EBE:142A idle  _setallpalette
 1EBE:14D0 idle  _setpalette
 1EBE:1513 idle  _getpalette
 1EBE:1532       _imagesize
 1EBE:1567       _putimage
 1EBE:15F6 idle  _gettextsettings
 1EBE:1615 idle  _outtext
 1EBE:1663 idle  _settextjustify
 1EBE:16A4       _settextstyle
 1EBE:1873 idle  _setusercharsize
 1EBE:1899 idle  _textheight
 1EBE:18AA idle  @DGROUP
 1EBE:18EE idle  _postdevice
 1EBE:1905       __installdevice
 1EBE:190A       __reinstalldevice
 1EBE:194E       __gr_setviewport
 1EBE:197A       __gr_setgraphmode
 1EBE:19B0       __gr_restorecrtmode
 1EBE:19EF       _setvisualpage
 1EBE:1A12       _setactivepage
 1EBE:1A38       _setwritemode
 1EBE:1A5B       __gr_setfillpattern
 1EBE:1A8E       __gr_settextjustify
 1EBE:1AAB       __gr_imagesize
 1EBE:1AFC       __autodetect
 1EBE:1B6D       __gr_detectgraph
 1EBE:1BAA       __initdevice
 1EBE:1BCF       __gr_cleardevice
 1EBE:1BE6       __gr_moveto
 1EBE:1C03       __gr_lineto
 1EBE:1C20       _line
 1EBE:1C43 idle  _drawpoly
 1EBE:1C63 idle  _fillpoly
 1EBE:1C83       _bar
 1EBE:1CA6 idle  _bar3d
 1EBE:1CE7       _ellipse
 1EBE:1D17 idle  _fillellipse
 1EBE:1D54       _sector
 1EBE:1D84 idle  _getarccoords
 1EBE:1DAD       _setcolor
 1EBE:1DCE       _getmaxcolor
 1EBE:1DE9       _getpalettesize
 1EBE:1E04       _getdefaultpalette
 1EBE:1E21       __gr_getmodename
 1EBE:1E42       _getmaxmode
 1EBE:1E5E       __gr_setbkcolor
 1EBE:1E7D idle  _setrgbpalette
 1EBE:1EA3       __gr_setpalette
 1EBE:1EC2       __gr_setallpalette
 1EBE:1EDD       __gr_setlinestyle
 1EBE:1F06 idle  _floodfill
 1EBE:1F4B       __gr_setfillstyle
 1EBE:1F7B       _outtextxy
 1EBE:1FB1       __gr_settextstyle
 1EBE:2002       __gr_setusercharsize
 1EBE:2028       _textwidth
 1EBE:2055       __gr_textheight
 1EBE:2076       _getpixel
 1EBE:2097       _putpixel
 1EBE:20B7       _getimage
 1EBE:20F4       __gr_putimage
 1EBE:22E0       __GRP_ovr
 2286:0306       e087_Entry
 2286:03C6       e087_Shortcut
 2286:0430       e087_Trap
 22E3:0000 idle  DATASEG@
 22E3:005B idle  __Int0Vector
 22E3:005F idle  __Int4Vector
 22E3:0063 idle  __Int5Vector
 22E3:0067 idle  __Int6Vector
 22E3:006B       __C0argc
 22E3:006D       __C0argv
 22E3:0071       __C0environ
 22E3:0075       __envLng
 22E3:0077       __envseg
 22E3:0079       __envSize
 22E3:007B       __psp
 22E3:007D idle  __osversion
 22E3:007D       __osmajor
 22E3:007D       __version
 22E3:007E idle  __osminor
 22E3:007F       _errno
 22E3:0081 idle  __StartTime
 22E3:0085 idle  ___brklvl
 22E3:0087       __heapbase
 22E3:008B       __brklvl
 22E3:008F       __heaptop
 22E3:0599       list::
 22E3:05A6       _LANG
 22E3:05A8 idle  _VER
 22E3:05AC idle  _COP
 22E3:05AF idle  _pfname
 22E3:05B3 idle  _ExeFile
 22E3:05B7 idle  _CfgFile
 22E3:05BB idle  _IndexFile
 22E3:05BF idle  _DataFile
 22E3:05C3 idle  _ThemesFile
 22E3:05C7 idle  _ZastFile
 22E3:05CB idle  _HelpFile
 22E3:05CF       _MainMenuLeaveMode
 22E3:05D1       _VColors
 22E3:05DD       _pViewer
 22E3:1661       BufWrite::
 22E3:166D       BufRead::
 22E3:167A idle  _Ftime
 22E3:17CE idle  _GMpath
 22E3:17D2 idle  _QGMenus
 22E3:17D4 idle  _savebuf
 22E3:17D8 idle  _statbuf
 22E3:17DC idle  _active_menu
 22E3:17DE idle  _stathandler
 22E3:17E0 idle  _BUFFER_SIZE
 22E3:1A7A idle  _GRINIT
 22E3:1A7C idle  _GRMOUSE
 22E3:1A7E idle  _MesSwitch
 22E3:1A80 idle  _RVISUAL_PAGE
 22E3:1A82 idle  _RACTIVE_PAGE
 22E3:1A84 idle  _FUON
 22E3:1A86 idle  _FUCurrentFont
 22E3:1A8A idle  _FUCurrentRef
 22E3:1A8E idle  _GWait
 22E3:1AB2       _BGIPath
 22E3:2527       enter_list::
 22E3:2533       TViewerHistory::
 22E3:2537       TGraphView::
 22E3:2544 idle  _HelpItem
 22E3:2C24 idle  _op
 22E3:2FD0       TArticle::
 22E3:2FDC idle  _ALL_SYMBOLS
 22E3:307E       __BGI_ovr
 22E3:3082       __BGI_auto
 22E3:321B       __DDO_ADD
 22E3:321F       __BGI_ADD
 22E3:3298 idle  __gr_ErrCode
 22E3:329A       __FON_ADD
 22E3:329E       __StatOfs
 22E3:32A0       __StatSeg
 22E3:32A2       __drawcolor
 22E3:32A3       __fillcolor
 22E3:32A4 idle  __backcolor
 22E3:32A5       __linestyle
 22E3:32A6       __fillstyle
 22E3:32AD idle  __OverScanColor
 22E3:36F0 idle  __8087
 22E3:3700       __protected
 22E3:3701       __LDT
 22E3:3704       __default87
 22E3:3706 idle  __huge_flt
 22E3:370A       __huge_dble
 22E3:3712 idle  __huge_ldble
 22E3:371C idle  __indefinite
 22E3:3720 idle  __tiny_ldble
 22E3:385C       __atexitcnt
 22E3:385E       __ctype
 22E3:3960       __exitbuf
 22E3:3964       __exitfopen
 22E3:3968 idle  __exitopen
 22E3:396C       __streams
 22E3:3AFC       __nfile
 22E3:3AFE       __openfd
 22E3:3B26       __fmode
 22E3:3B28       __notUmask
 22E3:3B2A       __fpstklen
 22E3:3B2C       __doserrno
 22E3:3B2E idle  __dosErrorToSV
 22E3:3BCC       __stklen
 22E3:3C36       __wscroll
 22E3:3C3A       __video
 22E3:3C49       _directvideo
 22E3:3C8A       __cFlag
 22E3:3C8B       __cChar
 22E3:3C8C idle  __argc
 22E3:3C8E idle  __argv
 22E3:3C9C       _environ
 22E3:3CB2 idle  __monthDay
 22E3:3CCC idle  _tzname
 22E3:3CD4       _timezone
 22E3:3CD8       _daylight
 22E3:3CE6       __RealCvtVector
 22E3:3CEA idle  __ScanTodVector
 22E3:3D3E       _MouseIs
 22E3:3D40 idle  _SavedMouseIs
 22E3:3D42 idle  _PROTECT1
 22E3:3D44 idle  _PROTECT2
 22E3:3D46 idle  _ev
 22E3:3D4C idle  _mh0
 22E3:3D4E idle  _mh1
 22E3:3D50 idle  _mh4
 22E3:3D52 idle  _mh5
 22E3:3D54 idle  _mh6
 22E3:3D56 idle  _mh7
 22E3:3D58 idle  _MainPath
 22E3:3DA8 idle  _Path
 22E3:3DF8 idle  _themes
 22E3:3DFA idle  _index
 22E3:3DFC idle  _data
 22E3:3DFE idle  _pIndex
 22E3:3E02 idle  _pData
 22E3:3E06 idle  _pThemes
 22E3:3E0A idle  _GMenus
 22E3:3E5A idle  _AVector
 22E3:3E82 idle  _CloseCounter
 22E3:3E84 idle  _KeyBuffer
 22E3:3EAC idle  _memhandler
 22E3:3EB0 idle  _inregs
 22E3:3EC0 idle  _GRX
 22E3:3EC2 idle  _GRY
 22E3:3EC4 idle  _COL
 22E3:3EC6 idle  _KOEF
 22E3:3ECE       _LINE_HEIGHT
 22E3:3ED0       _LINE_WIDTH
 22E3:3ED2 idle  _FUerr
 22E3:3ED4 idle  _Rfkeys
 22E3:3F24 idle  _TryMore
 22E3:3F25 idle  _PrinterReady
 22E3:3F26 idle  _ListEnterItem
 22E3:3F38 idle  _save1
 22E3:3F3C idle  _save2
 22E3:3F40 idle  _save3
 22E3:3FC4 idle  _CUR_DRIVE
 22E3:3FC6       _Hist
 22E3:4046       __atexittbl
 22E3:40D4       __new_handler
 22E3:40D8       ___SignalPtr
 26F3:0000       __emu

Line numbers for BOX.OBJ(BOX.CPP) segment BOX_TEXT

    14 059A:000A    18 059A:0011    21 059A:001E    28 059A:0042
    35 059A:0063    40 059A:0079    41 059A:0095    42 059A:00B1
    43 059A:00CD    44 059A:00E9    45 059A:0105    46 059A:0121
    47 059A:013D    48 059A:0159    49 059A:0175    51 059A:0191
    55 059A:01AB    57 059A:01B1    58 059A:01C4    62 059A:01DE
    65 059A:01E0    67 059A:01E7    68 059A:0201    72 059A:020F
    73 059A:0229    76 059A:0244    78 059A:024A    92 059A:0257
    93 059A:0271    95 059A:0296    99 059A:02AD   100 059A:02CA
   104 059A:02CE   105 059A:02D1   106 059A:02ED   107 059A:02F5
   108 059A:02FE   109 059A:0307   110 059A:0310   111 059A:031F
   112 059A:0328   113 059A:0331   115 059A:033B   117 059A:033E
   118 059A:0347   119 059A:0351   120 059A:035B   123 059A:035D
   125 059A:0360   126 059A:0371   127 059A:037B   128 059A:0385
   131 059A:0387   133 059A:038A   134 059A:03A2   137 059A:03A4
   139 059A:03A7   140 059A:03BC   141 059A:03F3   142 059A:03F3
   143 059A:043F   144 059A:0445   147 059A:0447   150 059A:044A
   151 059A:046C   152 059A:04A6   153 059A:04D0   154 059A:04D9
   155 059A:0518   159 059A:051A   160 059A:0520   162 059A:0568
   163 059A:058F   164 059A:0598   166 059A:05A2   167 059A:05AC
   168 059A:05B6   169 059A:05C0   171 059A:05CA   172 059A:05D4
   173 059A:05DE   174 059A:05E8   175 059A:05F2   176 059A:05FC
   178 059A:0606   179 059A:0610   180 059A:061A   181 059A:0624
   182 059A:062E   184 059A:0638   185 059A:0642   187 059A:064C
   188 059A:0656   190 059A:0660   191 059A:066A   192 059A:0674
   194 059A:067E   195 059A:0688   196 059A:0692   198 059A:069C
   199 059A:06A6   200 059A:06B0   201 059A:06BA   202 059A:06C4
   203 059A:06CE   204 059A:06D8   207 059A:06E4   209 059A:06EA
   210 059A:0711   211 059A:071A   213 059A:071E   216 059A:0721
   217 059A:072C   218 059A:0737   219 059A:0742   220 059A:074D
   221 059A:0758   222 059A:0763   224 059A:0765   227 059A:0768
   228 059A:0773   229 059A:077E   230 059A:0789   231 059A:0794
   232 059A:079F   235 059A:07A1   237 059A:07A4   238 059A:07AF
   239 059A:07BA   242 059A:07BC   244 059A:07BF   245 059A:07C9
   247 059A:07DB   248 059A:07F8   249 059A:07FF   252 059A:0801
   254 059A:0804   255 059A:080F   256 059A:081A   257 059A:0825
   259 059A:0827   261 059A:082A   262 059A:0835   263 059A:0840
   264 059A:084B   267 059A:084D   269 059A:0850   270 059A:085B
   271 059A:086D   272 059A:0873   274 059A:0885   275 059A:08B0
   276 059A:08B8   277 059A:08D7   280 059A:08D9   283 059A:08DC
   284 059A:08E7   285 059A:08F2   286 059A:08FD   287 059A:0908
   288 059A:0913   289 059A:091E   293 059A:0920   295 059A:0926
   296 059A:0943   297 059A:0943   298 059A:0985   299 059A:0997
   300 059A:09B8   301 059A:09CA   303 059A:09CA   304 059A:0A1E
   305 059A:0A1E   306 059A:0A55   307 059A:0A67   308 059A:0A7D
   310 059A:0A8F   312 059A:0A9A   314 059A:0AA7   317 059A:0AAD
   320 059A:0AB6   321 059A:0AF3   322 059A:0B00   323 059A:0B1A
   326 059A:0B5A   327 059A:0B70   328 059A:0B70   330 059A:0BC8
   332 059A:0BF0   333 059A:0C24   335 059A:0C64   340 059A:0C8B
   342 059A:0C92   343 059A:0CA6   344 059A:0CA6   345 059A:0CF5
   350 059A:0D19   352 059A:0D29   354 059A:0D2F   355 059A:0D50
   357 059A:0D5D   358 059A:0D62   361 059A:0D66   363 059A:0D69
   365 059A:0D8E   366 059A:0D9B   367 059A:0DC5   368 059A:0E07
   371 059A:0E09   373 059A:0E0F   375 059A:0E14   376 059A:0E66
   377 059A:0E6B   379 059A:0E6F   382 059A:0E75   383 059A:0E94
   384 059A:0EBB   385 059A:0ECE   387 059A:0ED9   388 059A:0EE9
   389 059A:0EFC   392 059A:0EFE   393 059A:0F1A   398 059A:0F36
   399 059A:0F62   401 059A:0F6D   402 059A:0F7D   403 059A:0F90
   406 059A:0F92   407 059A:0FAE   410 059A:0FCA   413 059A:0FCE
   417 059A:0FD4   418 059A:0FF4   420 059A:102B   422 059A:1050
   423 059A:1079   426 059A:107D   430 059A:1083   431 059A:10AB
   432 059A:10D2   433 059A:1125   434 059A:112A   437 059A:112E
   443 059A:1135   444 059A:114A   447 059A:1165   448 059A:1173
   450 059A:117E   451 059A:118F   452 059A:11A6   456 059A:11AB
   457 059A:11B3   458 059A:11CA   460 059A:11DF   463 059A:11E2
   464 059A:11F0   466 059A:1205   467 059A:120F   468 059A:1226
   472 059A:122B   473 059A:1233   474 059A:124A   476 059A:125F
   478 059A:1261   481 059A:126B   482 059A:1272   483 059A:12AE
   486 059A:12B3
    66 059A:12B8
    34 059A:1302
Line numbers for LIST.OBJ(LIST.CPP) segment LIST_TEXT

    68 06CC:0003    70 06CC:0006    71 06CC:001E    72 06CC:0033
    75 06CC:0035    77 06CC:0038    78 06CC:0042    79 06CC:005C
    80 06CC:007D    81 06CC:0096    84 06CC:0098    88 06CC:009E
    89 06CC:00AB    93 06CC:00B8    94 06CC:00CD    95 06CC:00EA
    96 06CC:00F2    97 06CC:0103    98 06CC:0121   100 06CC:012E
   103 06CC:0132   109 06CC:0139   111 06CC:0158   112 06CC:0165
   115 06CC:016B   119 06CC:018B   120 06CC:01B4   122 06CC:01BE
   123 06CC:01D8   124 06CC:01F9   125 06CC:0215   126 06CC:022F
   127 06CC:0232   129 06CC:0242   130 06CC:025D   131 06CC:0273
   136 06CC:027E   137 06CC:028C   138 06CC:02A7   139 06CC:02BD
   141 06CC:02CA   146 06CC:02CD   147 06CC:02E3   149 06CC:02FF
   151 06CC:0319   153 06CC:032B   154 06CC:0342   155 06CC:0365
   156 06CC:0374   159 06CC:0376   160 06CC:0394   161 06CC:03B5
   167 06CC:03C6   168 06CC:03D4   171 06CC:03F7   172 06CC:040D
   174 06CC:042E   176 06CC:043B   180 06CC:043E   181 06CC:044C
   182 06CC:0455   188 06CC:0461   189 06CC:0477   190 06CC:04AB
   191 06CC:04BB   192 06CC:04C8   196 06CC:04CB   197 06CC:04DF
   199 06CC:04F5   200 06CC:04FC   201 06CC:0518   202 06CC:0527
   203 06CC:0534   206 06CC:0536   207 06CC:0550   208 06CC:056C
   209 06CC:057B   211 06CC:0595   215 06CC:0598   216 06CC:05B4
   218 06CC:05D4   219 06CC:05DB   220 06CC:05F7   221 06CC:0606
   222 06CC:0627   223 06CC:0634   226 06CC:0637   227 06CC:0651
   228 06CC:066D   229 06CC:067C   230 06CC:069D   236 06CC:06BA
   241 06CC:06CA   242 06CC:06D7   243 06CC:06F1   245 06CC:0702
   247 06CC:0716   248 06CC:0726   249 06CC:0747   250 06CC:0749
   251 06CC:0751   254 06CC:0753   256 06CC:0764   257 06CC:077D
   258 06CC:079D   259 06CC:079F   261 06CC:07AE   267 06CC:07CB
   268 06CC:07D8   269 06CC:07F2   271 06CC:0803   273 06CC:0831
   274 06CC:0831   275 06CC:0872   278 06CC:0874   279 06CC:089D
   280 06CC:08BA   287 06CC:08D6   289 06CC:08F5   290 06CC:090D
   291 06CC:0919   294 06CC:0924   295 06CC:0950   296 06CC:0972
   298 06CC:09A2   299 06CC:09AF   300 06CC:09B1   302 06CC:09CD
   303 06CC:09E7   304 06CC:09FF   305 06CC:0A0A   307 06CC:0A24
   311 06CC:0A32   312 06CC:0A46   313 06CC:0A61   314 06CC:0A75
   316 06CC:0A8B   317 06CC:0AA5   318 06CC:0AB0   319 06CC:0ACA
   322 06CC:0ACC   323 06CC:0AD7   324 06CC:0AEB   329 06CC:0AFB
   333 06CC:0B17   334 06CC:0B2B   336 06CC:0B3B   337 06CC:0B4F
   338 06CC:0B5B   339 06CC:0B76   340 06CC:0B7E   342 06CC:0B94
   343 06CC:0BAE   344 06CC:0BB9   345 06CC:0BD3   348 06CC:0BD5
   349 06CC:0BE0   350 06CC:0BF4   352 06CC:0C01   353 06CC:0C0E
   355 06CC:0C14   358 06CC:0C49   362 06CC:0C4F   364 06CC:0C6A
   365 06CC:0C76   366 06CC:0C95   367 06CC:0CB2   368 06CC:0CD3
   371 06CC:0CD7   378 06CC:0CDD   379 06CC:0CF7   381 06CC:0D0F
   382 06CC:0D33   383 06CC:0D4E   384 06CC:0D62   387 06CC:0D66
   389 06CC:0D69   390 06CC:0D89   391 06CC:0D98   394 06CC:0D9A
   396 06CC:0D9D   397 06CC:0DD8   398 06CC:0DDF   401 06CC:0DE5
   405 06CC:0DEB   406 06CC:0DFF   408 06CC:0E06   409 06CC:0E3B
   410 06CC:0E82   412 06CC:0E85   413 06CC:0E8D   415 06CC:0E95
   416 06CC:0EAE   417 06CC:0EE8   420 06CC:0F49   421 06CC:0F4F
   424 06CC:0F53   427 06CC:0F59   428 06CC:0F66   429 06CC:0F7A
   431 06CC:0F81   432 06CC:0FA5   434 06CC:0FE2   435 06CC:0FF7
   440 06CC:0FFB   444 06CC:1001   445 06CC:100E   449 06CC:101B
   450 06CC:1030   451 06CC:104D   452 06CC:1055   453 06CC:1066
   455 06CC:1083   459 06CC:1087   463 06CC:108E   465 06CC:10AD
   466 06CC:10BA   469 06CC:10C0   472 06CC:10E0   473 06CC:10F8
   474 06CC:1121   479 06CC:1124   480 06CC:1139   481 06CC:1147
   487 06CC:116B   488 06CC:1178   494 06CC:1183   495 06CC:1199
   501 06CC:11AA   502 06CC:11B7   508 06CC:11C0   509 06CC:11D6
   510 06CC:11DD   511 06CC:11EA   514 06CC:11F8   518 06CC:1214
   519 06CC:1221   520 06CC:1239   522 06CC:123F   523 06CC:124F
   524 06CC:1256   525 06CC:1258   527 06CC:125E   528 06CC:1274
   529 06CC:127B   532 06CC:127D   533 06CC:12A9   535 06CC:12CB
   539 06CC:12D9   540 06CC:12ED   541 06CC:1308   548 06CC:1313
   549 06CC:1327   551 06CC:1337   552 06CC:134B   553 06CC:1357
   554 06CC:1372   555 06CC:137A   556 06CC:1384   557 06CC:1391
   558 06CC:139E   560 06CC:13A3   565 06CC:13CC   566 06CC:13CF
   567 06CC:13EB   568 06CC:13F3   569 06CC:13FC   570 06CC:1405
   571 06CC:140E   572 06CC:1417   573 06CC:1420   574 06CC:1429
   575 06CC:1432   577 06CC:143B   578 06CC:1444   579 06CC:144D
   580 06CC:1456   581 06CC:145F   583 06CC:1468   586 06CC:1472
   588 06CC:1478   589 06CC:147E   591 06CC:1484   592 06CC:149F
   593 06CC:14BB   594 06CC:14D7   595 06CC:14F3   596 06CC:150F
   597 06CC:152B   599 06CC:1547   600 06CC:1547   601 06CC:1579
   603 06CC:158B   604 06CC:15C1   605 06CC:1615   606 06CC:1647
   607 06CC:167D   608 06CC:16D1   611 06CC:1703   613 06CC:1741
   614 06CC:1756   617 06CC:175A   621 06CC:1760   623 06CC:178A
   624 06CC:1797   625 06CC:17A4   627 06CC:17AA   628 06CC:17E2
   631 06CC:17F3   633 06CC:1831   635 06CC:185F   636 06CC:1869
   639 06CC:186D   642 06CC:1870   643 06CC:18A6   644 06CC:18AA
   647 06CC:18AC   653 06CC:18B2   654 06CC:18CE   655 06CC:18E8
   658 06CC:1919   659 06CC:1933   661 06CC:1965   662 06CC:196B
   665 06CC:196F   667 06CC:1975   668 06CC:19AC   669 06CC:19B6
   670 06CC:19C0   671 06CC:19CA   673 06CC:19D4   674 06CC:19DE
   675 06CC:19E8   676 06CC:19F2   677 06CC:19FC   681 06CC:1A06
   682 06CC:1A34   684 06CC:1A52   685 06CC:1A5B   686 06CC:1A64
   687 06CC:1A6D   688 06CC:1A76   690 06CC:1A7F   691 06CC:1A89
   693 06CC:1A93   694 06CC:1A9C   696 06CC:1AA5   698 06CC:1AAE
   700 06CC:1AB8   701 06CC:1AD9   702 06CC:1AE3   703 06CC:1AEA
   704 06CC:1B2C   706 06CC:1B35   709 06CC:1B3F   710 06CC:1B48
   711 06CC:1B57   712 06CC:1B66   713 06CC:1B6F   714 06CC:1B7E
   715 06CC:1B88   717 06CC:1B99   718 06CC:1BA3   721 06CC:1BAF
   722 06CC:1BB2   723 06CC:1BC5   724 06CC:1BE8   726 06CC:1BF9
   727 06CC:1C18   729 06CC:1C27   730 06CC:1C46   732 06CC:1C55
   733 06CC:1C74   735 06CC:1C83   736 06CC:1CBA   739 06CC:1CBC
   741 06CC:1CC3   742 06CC:1CDC   743 06CC:1CE6   744 06CC:1D25
   745 06CC:1D55   746 06CC:1D5F   748 06CC:1D74   749 06CC:1D93
   752 06CC:1D98   754 06CC:1D9B   755 06CC:1DA7   756 06CC:1DB9
   757 06CC:1DC3   759 06CC:1DD4   760 06CC:1DEB   763 06CC:1DED
   765 06CC:1DF3   766 06CC:1DFD   767 06CC:1E08   768 06CC:1E22
   769 06CC:1E39   770 06CC:1E5A   773 06CC:1E5E   775 06CC:1E61
   778 06CC:1E73   779 06CC:1E8F   780 06CC:1E8F   781 06CC:1ECB
   782 06CC:1ED5   784 06CC:1EE7   785 06CC:1F13   788 06CC:1F15
   790 06CC:1F18   791 06CC:1F23   792 06CC:1F2E   793 06CC:1F39
   794 06CC:1F69   797 06CC:1F6B   799 06CC:1F6E   800 06CC:1F8A
   801 06CC:1FA2   802 06CC:1FA9   807 06CC:1FAB   809 06CC:1FB1
   810 06CC:1FC7   812 06CC:2016   817 06CC:201A   820 06CC:201D
   821 06CC:202E   822 06CC:2056   823 06CC:2080   824 06CC:2082
   826 06CC:208B   828 06CC:209D   829 06CC:20C3   832 06CC:20CC
   833 06CC:20D2   836 06CC:20D4   842 06CC:20DA   844 06CC:20F0
   845 06CC:210B   846 06CC:212A   847 06CC:2134   848 06CC:2145
   855 06CC:2149   861 06CC:214F   863 06CC:2164   865 06CC:216D
   866 06CC:2179   867 06CC:2190   868 06CC:219A   869 06CC:21B7
   870 06CC:21CB   871 06CC:21D3   872 06CC:21D3   873 06CC:220A
   874 06CC:221F   878 06CC:2231   879 06CC:2241   880 06CC:2254
   881 06CC:225D   883 06CC:2263   884 06CC:2277   885 06CC:227D
   886 06CC:229F   887 06CC:22A5   890 06CC:22A8   891 06CC:22A8
   892 06CC:22CD   894 06CC:22D5   895 06CC:22D5   896 06CC:2312
   897 06CC:2312   899 06CC:235D   902 06CC:236E   905 06CC:2372
   907 06CC:2378   908 06CC:238B   909 06CC:2392   910 06CC:23B0
   911 06CC:23BD   914 06CC:23C1   919 06CC:23C7   920 06CC:23E9
   921 06CC:2400   922 06CC:241A   923 06CC:2431   924 06CC:2452
   925 06CC:245F   928 06CC:2463   930 06CC:2469   931 06CC:2475
   934 06CC:2484   935 06CC:24A6   936 06CC:24C4   937 06CC:24D8
   939 06CC:24E9   942 06CC:24ED   946 06CC:24F3   947 06CC:2507
   948 06CC:2514   949 06CC:2536   950 06CC:2555   951 06CC:2581
   952 06CC:25AB   959 06CC:25AF   961 06CC:25B2   962 06CC:25DA
   963 06CC:2602   964 06CC:261F   965 06CC:2652   966 06CC:267A
   967 06CC:26A0   968 06CC:26C6   969 06CC:26D8   970 06CC:26F8
   974 06CC:270A   976 06CC:273D   978 06CC:274B   979 06CC:278B
   983 06CC:27D6   985 06CC:27F4   986 06CC:282F   987 06CC:2844
   989 06CC:284D   991 06CC:285D   992 06CC:2867   993 06CC:287D
   994 06CC:2893   995 06CC:28A9   996 06CC:28B6   997 06CC:28B8
  1000 06CC:28C2  1001 06CC:28D5  1002 06CC:28E1  1003 06CC:28ED
  1006 06CC:28EF  1010 06CC:28F5  1012 06CC:28F5  1014 06CC:2974
  1015 06CC:297F  1016 06CC:2986  1018 06CC:29DC  1019 06CC:29E4
  1021 06CC:29EB  1022 06CC:2A03  1025 06CC:2A72  1026 06CC:2A9A
  1027 06CC:2ACC  1028 06CC:2AE7  1031 06CC:2AEB  1035 06CC:2AF1
  1036 06CC:2B0C  1037 06CC:2B3B  1040 06CC:2B3F  1042 06CC:2B45
  1044 06CC:2B4A  1046 06CC:2B5F  1047 06CC:2BBB  1048 06CC:2BC0
  1051 06CC:2BC4  1055 06CC:2BCA  1057 06CC:2BD6  1058 06CC:2BDE
  1059 06CC:2BE6  1062 06CC:2BE9  1064 06CC:2BF4  1065 06CC:2C02
  1066 06CC:2C17  1069 06CC:2C19  1070 06CC:2C27  1074 06CC:2C3C
  1075 06CC:2C61  1076 06CC:2C89  1079 06CC:2C8D  1082 06CC:2C93
  1084 06CC:2C97  1086 06CC:2CAC  1087 06CC:2CC7  1089 06CC:2CDE
  1091 06CC:2D03  1093 06CC:2D0A  1095 06CC:2D27  1096 06CC:2D42
  1097 06CC:2D5F  1100 06CC:2D82  1103 06CC:2D86  1105 06CC:2D89
  1106 06CC:2DB9  1107 06CC:2DCF  1108 06CC:2DEC  1109 06CC:2E02
  1112 06CC:2E04  1114 06CC:2E07  1115 06CC:2E20
   258 06CC:2E22
   259 06CC:2E3E
   271 06CC:2E6A
   163 06CC:2E87
   155 06CC:2E96
   162 06CC:2EB1
    25 06CC:2EC0
   165 06CC:2EE1
   173 06CC:2F00
   174 06CC:2F1A
   175 06CC:2F34
   164 06CC:2F4E
    10 06CC:2F64
    12 06CC:2FB3
    11 06CC:3002
Line numbers for MAIN.OBJ(MAIN.CPP) segment MAIN_TEXT

   133 09D0:000E   143 09D0:0014   148 09D0:0019   149 09D0:0030
   150 09D0:004B   151 09D0:005F   152 09D0:0071   153 09D0:0076
   154 09D0:007B   155 09D0:0085   157 09D0:00C8   159 09D0:00CD
   161 09D0:00D2   163 09D0:011A   166 09D0:011F   167 09D0:0124
   168 09D0:0129   169 09D0:0133   172 09D0:0137   174 09D0:013A
   176 09D0:0149   179 09D0:0149   181 09D0:01AD   183 09D0:01BB
   186 09D0:01BB   189 09D0:0221   192 09D0:0221   194 09D0:0287
   197 09D0:0287   199 09D0:02ED   202 09D0:02ED   212 09D0:0353
   213 09D0:0367   214 09D0:0399   215 09D0:03B7   216 09D0:03EA
   217 09D0:0409   218 09D0:043C   221 09D0:045B   222 09D0:0493
   224 09D0:04B2   225 09D0:04C6   226 09D0:04FE   227 09D0:051C
   228 09D0:0554   229 09D0:0573   230 09D0:05AB   231 09D0:05CA
   238 09D0:05D9   239 09D0:05ED   240 09D0:061F   241 09D0:063A
   242 09D0:0655   243 09D0:0673   244 09D0:06A7   247 09D0:06C6
   248 09D0:06DA   249 09D0:0713   250 09D0:0731   251 09D0:076A
   253 09D0:0789   254 09D0:079D   255 09D0:07CE   256 09D0:07D8
   257 09D0:07F6   258 09D0:0827   259 09D0:0831   260 09D0:0850
   261 09D0:0881   262 09D0:088B   263 09D0:08AA   264 09D0:08DB
   265 09D0:08E5   266 09D0:0904   267 09D0:0935   268 09D0:093F
   269 09D0:095E   270 09D0:098F   271 09D0:0999   272 09D0:09B8
   273 09D0:09F0   287 09D0:0A0F   290 09D0:0A11   292 09D0:0A14
   293 09D0:0A1B   294 09D0:0A24   296 09D0:0A2B   297 09D0:0A31
   300 09D0:0A38   301 09D0:0A3D   303 09D0:0A3F   305 09D0:0A42
   306 09D0:0A47   308 09D0:0A6A   309 09D0:0A6F   311 09D0:0A74
   312 09D0:0A79   313 09D0:0A9D   314 09D0:0AC1   315 09D0:0AE5
   316 09D0:0AEF   317 09D0:0AF9   322 09D0:0B03   325 09D0:0B05
   329 09D0:0B0B   330 09D0:0B0B   331 09D0:0B58   334 09D0:0B5E
   344 09D0:0B62   345 09D0:0B67   346 09D0:0B6B   347 09D0:0B75
   349 09D0:0B81   351 09D0:0B85   353 09D0:0B88   354 09D0:0B92
   355 09D0:0B9B   356 09D0:0B9F   359 09D0:0BA1   362 09D0:0BA8
   367 09D0:0BB2   368 09D0:0BB7   369 09D0:0BC1   370 09D0:0BD0
   371 09D0:0BDC   373 09D0:0BE6   374 09D0:0BF0   375 09D0:0BFA
   376 09D0:0C04   377 09D0:0C0E   378 09D0:0C18   379 09D0:0C22
   380 09D0:0C2C   381 09D0:0C36   383 09D0:0C40   385 09D0:0C48
   386 09D0:0C5B   387 09D0:0C7D   388 09D0:0C97   390 09D0:0C9D
   391 09D0:0CA2   392 09D0:0CBC   393 09D0:0CE2   394 09D0:0CE5
   397 09D0:0CF6   399 09D0:0CFC   400 09D0:0D16   401 09D0:0D28
   404 09D0:0D32   405 09D0:0D32   407 09D0:0D63   408 09D0:0D7D
   409 09D0:0D8F   410 09D0:0D92   414 09D0:0DA5   416 09D0:0DB0
   418 09D0:0DBF   419 09D0:0DD9   420 09D0:0DEB   421 09D0:0DEE
   424 09D0:0E01   428 09D0:0E0C   429 09D0:0E16   430 09D0:0E20
   433 09D0:0E24   435 09D0:0E27   437 09D0:0E2D   438 09D0:0E4D
   439 09D0:0E6D   441 09D0:0E8D   442 09D0:0E94   443 09D0:0EAC
   444 09D0:0EB0   445 09D0:0EB7   446 09D0:0ECF   447 09D0:0ED3
   448 09D0:0EDA   449 09D0:0EF2   451 09D0:0EF6   452 09D0:0F0A
   453 09D0:0F1E   455 09D0:0F32   456 09D0:0F46   457 09D0:0F5A
   459 09D0:0F6E   460 09D0:0F73   462 09D0:0F75   464 09D0:0F78
   465 09D0:0F84   466 09D0:0FCC   467 09D0:0FD5   469 09D0:0FEC
   470 09D0:0FF0   472 09D0:0FF2   476 09D0:0FF8   477 09D0:0FFD
   478 09D0:1002   479 09D0:1016   484 09D0:1026   486 09D0:1032
   487 09D0:1054   481 09D0:106C   490 09D0:1082   496 09D0:1098
   498 09D0:109C   501 09D0:10A2   502 09D0:10B6   504 09D0:10CC
   505 09D0:10D8   507 09D0:10DF   508 09D0:10EE   510 09D0:10F3
   511 09D0:110B   512 09D0:110F   513 09D0:1113   515 09D0:1117
   518 09D0:111D   519 09D0:1131   521 09D0:1147   522 09D0:1153
   524 09D0:115A   525 09D0:1169   527 09D0:116E   529 09D0:1190
   530 09D0:119C   532 09D0:11A3   535 09D0:11B4   536 09D0:11CC
   537 09D0:11D0   538 09D0:11D4   540 09D0:11D8   543 09D0:11DE
   544 09D0:11F2   546 09D0:1208   547 09D0:1214   549 09D0:121B
   550 09D0:122A   552 09D0:122F   553 09D0:1247   554 09D0:124B
   555 09D0:124F   580 09D0:1253   582 09D0:1256   583 09D0:1274
   584 09D0:1294   587 09D0:1296   592 09D0:129D   593 09D0:12A1
   594 09D0:12C1   595 09D0:12DD   596 09D0:12F9   598 09D0:1322
   599 09D0:1322   601 09D0:1356   603 09D0:135D   604 09D0:1367
   605 09D0:1371   606 09D0:137B   607 09D0:1385   608 09D0:138E
   609 09D0:1396   610 09D0:139E   611 09D0:13A6   612 09D0:13AE
   613 09D0:13B6   614 09D0:13BE   615 09D0:13C6   616 09D0:13CE
   619 09D0:13D1   620 09D0:13DB   621 09D0:13E5   622 09D0:13EF
   623 09D0:13F9   624 09D0:1402   625 09D0:140A   626 09D0:1412
   627 09D0:141A   628 09D0:1422   629 09D0:142A   630 09D0:1432
   631 09D0:143A   632 09D0:1442   633 09D0:144A   636 09D0:1452
   637 09D0:1492   639 09D0:14AB   641 09D0:14BD   642 09D0:14C7
   644 09D0:14CB   646 09D0:14CF   647 09D0:14D3   651 09D0:14D7
   660 09D0:14DD   661 09D0:14E1   662 09D0:14E6   663 09D0:1506
   664 09D0:1522   665 09D0:153E   668 09D0:1567   669 09D0:1572
   670 09D0:1592   671 09D0:15B9   672 09D0:15BE   673 09D0:15DF
   674 09D0:1600   675 09D0:1615   678 09D0:162E   679 09D0:1643
   680 09D0:1663   681 09D0:16A9   682 09D0:16C2   683 09D0:16C7
   684 09D0:16E8   685 09D0:1709   686 09D0:171E   689 09D0:1737
   690 09D0:1750   691 09D0:175C   692 09D0:177D   695 09D0:1796
   696 09D0:17AF   697 09D0:17C8   698 09D0:17E0   700 09D0:17F9
   701 09D0:17FE   703 09D0:1810   704 09D0:181A   706 09D0:181E
   708 09D0:1822   709 09D0:1826   712 09D0:182A   718 09D0:1831
   719 09D0:1846   721 09D0:1863   722 09D0:1875   723 09D0:188A
   725 09D0:18A4   726 09D0:18A4   727 09D0:18ED   729 09D0:18F3
   733 09D0:18F8   734 09D0:190C   736 09D0:1929   737 09D0:1940
   739 09D0:1946   740 09D0:194C   742 09D0:1965   744 09D0:196B
   745 09D0:1982   747 09D0:19A1   748 09D0:19B8   750 09D0:19D7
   751 09D0:19EE   752 09D0:19F4   756 09D0:1A10   759 09D0:1A14
   762 09D0:1A1A   765 09D0:1A2C   766 09D0:1A3E   768 09D0:1A53
   769 09D0:1A67   771 09D0:1A6D   772 09D0:1A85   775 09D0:1A8B
   776 09D0:1AA2   778 09D0:1AC1   779 09D0:1AD8   781 09D0:1AF7
   782 09D0:1B0E   784 09D0:1B2D   785 09D0:1B44   786 09D0:1B4A
   788 09D0:1B63   789 09D0:1B68   800 09D0:1B6C   802 09D0:1B73
   809 09D0:1B73   811 09D0:1B85   818 09D0:1B85   820 09D0:1B97
   821 09D0:1BB3   822 09D0:1BCF   823 09D0:1BEB   824 09D0:1C07
   825 09D0:1C23   826 09D0:1C3F   827 09D0:1C5B   828 09D0:1C77
   829 09D0:1C93   830 09D0:1CAF   831 09D0:1CCB   832 09D0:1CE7
   833 09D0:1D03   834 09D0:1D1F   835 09D0:1D3B   836 09D0:1D57
   839 09D0:1D5B   841 09D0:1D61   843 09D0:1D68   845 09D0:1D87
   846 09D0:1D8F   847 09D0:1D96   848 09D0:1D9D   849 09D0:1DA4
   850 09D0:1DAB   851 09D0:1DB2   862 09D0:1DB9   863 09D0:1DC0
   865 09D0:1DC7   868 09D0:1DC9   871 09D0:1DE8   872 09D0:1DEF
   873 09D0:1DF6   874 09D0:1DFD   875 09D0:1E04   876 09D0:1E0B
   885 09D0:1E13   886 09D0:1E1B   889 09D0:1E23   892 09D0:1E63
   894 09D0:1E66   895 09D0:1E6A   897 09D0:1E6C   900 09D0:1E72
   901 09D0:1E7E   902 09D0:1EA0   903 09D0:1EB3   904 09D0:1EC1
   908 09D0:1EC1   909 09D0:1F08   911 09D0:1F0C   913 09D0:1F12
   914 09D0:1F1A   915 09D0:1F26   918 09D0:1F26   919 09D0:1F6E
   921 09D0:1F72   923 09D0:1F76   925 09D0:1F7C   926 09D0:1FA0
   927 09D0:1FA8   928 09D0:1FC0   929 09D0:1FC4   930 09D0:1FD4
   931 09D0:1FE1   932 09D0:1FE6   934 09D0:1FEA   936 09D0:1FF0
   937 09D0:1FF0   938 09D0:203D   940 09D0:2048   941 09D0:204E
   942 09D0:2054   943 09D0:205A   944 09D0:2060   945 09D0:2066
   946 09D0:206C   947 09D0:207A   948 09D0:2089   949 09D0:2098
   950 09D0:20A7   951 09D0:20B6   953 09D0:20C8   956 09D0:20CC
   958 09D0:20D2   959 09D0:20E1   961 09D0:20F5   962 09D0:20FA
   963 09D0:2112   965 09D0:211C   966 09D0:212F   967 09D0:214D
   969 09D0:216C   970 09D0:218A   971 09D0:21AB   972 09D0:21D0
   973 09D0:21F8   974 09D0:2212   975 09D0:2230   976 09D0:2252
   978 09D0:2277   979 09D0:2291   980 09D0:22B2   981 09D0:22D3
   982 09D0:22F7   983 09D0:2311   984 09D0:232F   985 09D0:2351
   987 09D0:2376   988 09D0:2388   989 09D0:23A1   990 09D0:23BA
   991 09D0:23D3   993 09D0:23EC   994 09D0:2405   995 09D0:241E
   996 09D0:2437   998 09D0:2450  1000 09D0:2457  1001 09D0:2461
  1003 09D0:247A  1007 09D0:247E  1009 09D0:2481  1010 09D0:2493
  1011 09D0:24A6  1012 09D0:24AD
    31 09D0:24D6
    38 09D0:2519
    28 09D0:253A
    84 09D0:2556
Line numbers for BUFRW.OBJ(BUFRW.C) segment BUFRW_TEXT

    14 0C26:0006    15 0C26:0009    16 0C26:002D    17 0C26:003D
    18 0C26:0045    19 0C26:004E    20 0C26:0057    21 0C26:0060
    23 0C26:0068    25 0C26:0072    27 0C26:0075    28 0C26:0084
    29 0C26:0099    30 0C26:00A6    31 0C26:00BD    33 0C26:00BF
    34 0C26:00C2    35 0C26:00D2    36 0C26:00F7    38 0C26:00F9
    40 0C26:00FC    41 0C26:010E    45 0C26:0110    48 0C26:0113
    50 0C26:0123    51 0C26:012D    53 0C26:0134    55 0C26:0141
    56 0C26:015E    58 0C26:016B    59 0C26:0170    62 0C26:0172
    67 0C26:0178    68 0C26:0182    70 0C26:0186    72 0C26:01A7
    74 0C26:01AE    75 0C26:01B8    76 0C26:01C0    78 0C26:01C2
    80 0C26:01CB    81 0C26:01D4    82 0C26:01D9    87 0C26:01DD
    88 0C26:01E0    89 0C26:0204    90 0C26:0214    91 0C26:021D
    92 0C26:0226    93 0C26:022F    94 0C26:0237    96 0C26:0241
    98 0C26:0244    99 0C26:0253   100 0C26:0268   101 0C26:0275
   102 0C26:028C   104 0C26:028E   105 0C26:0291   106 0C26:02A1
   107 0C26:02B2   108 0C26:02BC   109 0C26:02BC   110 0C26:02DC
   112 0C26:02DE   114 0C26:02E1   115 0C26:02F3   118 0C26:02F5
   120 0C26:02FB   122 0C26:0300   123 0C26:030B   125 0C26:031B
   126 0C26:0333   127 0C26:033A   129 0C26:0347   130 0C26:034C
   133 0C26:0350   136 0C26:0356   137 0C26:0360   139 0C26:0364
   141 0C26:0388   143 0C26:0394   147 0C26:03A2   148 0C26:03AB
   149 0C26:03B4   150 0C26:03B9
    32 0C26:03BD
    64 0C26:03C9
Line numbers for FTYPE.OBJ(FTYPE.C) segment FTYPE_TEXT

    13 0C63:0005    17 0C63:000B    19 0C63:000F    20 0C63:0026
    22 0C63:003D    23 0C63:004F    24 0C63:0061    25 0C63:0073
    27 0C63:0083    28 0C63:009B    30 0C63:00BA    31 0C63:00C2
    34 0C63:00C6    39 0C63:00CC    40 0C63:00D2    41 0C63:00D8
    43 0C63:00F0    45 0C63:0108    46 0C63:0121    49 0C63:0125
    56 0C63:012B    57 0C63:015C    59 0C63:0175    61 0C63:0196
    62 0C63:01B5    64 0C63:01DB    65 0C63:01E3    68 0C63:01E7
    70 0C63:01ED    73 0C63:01FA    74 0C63:0212    77 0C63:0222
    78 0C63:023A    81 0C63:0249    82 0C63:0261    85 0C63:0270
    86 0C63:0288    87 0C63:0297    91 0C63:02AE    92 0C63:02CD
    93 0C63:02DF    94 0C63:02F4    95 0C63:0306    96 0C63:0330
    99 0C63:0334   101 0C63:033A   103 0C63:0347   104 0C63:035F
   107 0C63:0378   108 0C63:0390   111 0C63:03A8   112 0C63:03C0
   115 0C63:03D8   116 0C63:03F0   117 0C63:0408   121 0C63:041F
   122 0C63:043E   123 0C63:0450   124 0C63:0465   125 0C63:0477
   128 0C63:047B   130 0C63:0481   133 0C63:048E   134 0C63:04A6
   137 0C63:04B6   138 0C63:04CE   141 0C63:04DD   142 0C63:04F5
   145 0C63:0504   146 0C63:051C   147 0C63:052B   151 0C63:0542
   152 0C63:0561   153 0C63:057B   154 0C63:0592   155 0C63:05B8
   156 0C63:05D4   159 0C63:05D8   167 0C63:05DE   168 0C63:05F1
   169 0C63:05FE   170 0C63:0606   173 0C63:060A   184 0C63:0610
   185 0C63:0623   186 0C63:0648   187 0C63:0655   188 0C63:065D
   190 0C63:0661   197 0C63:0667   198 0C63:067C   199 0C63:069F
   200 0C63:06C2   201 0C63:06D6   202 0C63:06EF   203 0C63:071B
   204 0C63:0734   205 0C63:0760   206 0C63:0779   207 0C63:07A5
   226 0C63:07A9   231 0C63:07AF   232 0C63:07C3   233 0C63:07DC
   234 0C63:07FC   235 0C63:080D   237 0C63:0820   238 0C63:0839
   239 0C63:0859   240 0C63:086A   242 0C63:087D   243 0C63:0896
   245 0C63:089E   246 0C63:08B7   247 0C63:08D7   248 0C63:08F0
   249 0C63:0900   252 0C63:0902   253 0C63:0913   254 0C63:092C
   255 0C63:0945   258 0C63:0958   259 0C63:0960   262 0C63:0964
   267 0C63:096A   268 0C63:0986   269 0C63:099E   270 0C63:09BD
   271 0C63:09CF   272 0C63:09D7   275 0C63:09DB   277 0C63:09E1
   280 0C63:09F3   281 0C63:0A0C   282 0C63:0A2C   283 0C63:0A3A
   284 0C63:0A55   286 0C63:0A67   287 0C63:0A80   288 0C63:0AA0
   289 0C63:0AAE   290 0C63:0AC9   292 0C63:0ADB   293 0C63:0AF4
   295 0C63:0AFC   296 0C63:0B15   297 0C63:0B35   298 0C63:0B43
   302 0C63:0B48   303 0C63:0B56   305 0C63:0B71   306 0C63:0B83
   309 0C63:0B87   313 0C63:0B8D   314 0C63:0BB2   315 0C63:0BCA
   317 0C63:0BD2   318 0C63:0BEA   319 0C63:0C09   320 0C63:0C10
   321 0C63:0C12   322 0C63:0C19   325 0C63:0C1D   327 0C63:0C23
   330 0C63:0C42   331 0C63:0C5A   333 0C63:0C69   334 0C63:0C81
   337 0C63:0C90   338 0C63:0CA8   341 0C63:0CB7   342 0C63:0CCF
   347 0C63:0CDC   348 0C63:0CFB   349 0C63:0D17   350 0C63:0D2E
   352 0C63:0D58   354 0C63:0D85   357 0C63:0D89   359 0C63:0D8F
   361 0C63:0D94   362 0C63:0DA6   363 0C63:0DAC   364 0C63:0DB8
   365 0C63:0DC4   367 0C63:0DE2   368 0C63:0DFB   370 0C63:0DFF
   374 0C63:0E05   375 0C63:0E1D   377 0C63:0E34   379 0C63:0E48
   380 0C63:0E61   381 0C63:0E81   382 0C63:0E92   384 0C63:0EA5
   385 0C63:0EBE   386 0C63:0EDE   387 0C63:0EEF   389 0C63:0F02
   390 0C63:0F0A   393 0C63:0F0E   395 0C63:0F14   399 0C63:0F26
   400 0C63:0F3F   401 0C63:0F5F   402 0C63:0F6D   403 0C63:0F88
   405 0C63:0F9A   406 0C63:0FB3   407 0C63:0FD3   408 0C63:0FE1
   409 0C63:0FFC   410 0C63:100E
   190 0C63:1012
Line numbers for GMENU.OBJ(GMENU.C) segment GMENU_TEXT

    72 0D65:0006    83 0D65:0009    87 0D65:001C    88 0D65:0023
    89 0D65:0041    90 0D65:005F    91 0D65:0071    92 0D65:008E
    93 0D65:00A0    94 0D65:00B3    95 0D65:00C6    96 0D65:00C6
    97 0D65:00EC    98 0D65:0106    99 0D65:0120   100 0D65:013A
   102 0D65:014D   103 0D65:0169   104 0D65:017D   106 0D65:0191
   107 0D65:01A5   108 0D65:01B9   109 0D65:01CD   110 0D65:01E0
   111 0D65:01F3   112 0D65:0206   113 0D65:0219   114 0D65:022C
   115 0D65:023F   116 0D65:0252   117 0D65:0265   118 0D65:0279
   119 0D65:028D   120 0D65:02A0   121 0D65:02B3   122 0D65:02C6
   123 0D65:02D9   124 0D65:02EB   125 0D65:02FE   126 0D65:0318
   127 0D65:0332   128 0D65:0345   129 0D65:0358   130 0D65:036B
   131 0D65:037E   133 0D65:0391   134 0D65:039A   136 0D65:039E
   137 0D65:03A6   141 0D65:03A8   145 0D65:03AE   147 0D65:03B5
   152 0D65:03DF   153 0D65:0406   159 0D65:040A   161 0D65:0447
   162 0D65:045D   163 0D65:0470   164 0D65:0474   168 0D65:0480
   172 0D65:0486   173 0D65:048C   174 0D65:04B7   175 0D65:04CF
   176 0D65:04E5   180 0D65:04FD   181 0D65:0508   184 0D65:052F
   188 0D65:0533   195 0D65:053A   196 0D65:054C   197 0D65:0552
   198 0D65:0570   199 0D65:059A   200 0D65:05B8   203 0D65:05D5
   204 0D65:05F2   206 0D65:060F   207 0D65:0635   208 0D65:065B
   209 0D65:0681   211 0D65:06A4   212 0D65:06CA   213 0D65:06E9
   214 0D65:06EC   215 0D65:0712   217 0D65:072F   218 0D65:0755
   221 0D65:0773   223 0D65:079C   224 0D65:07BB   225 0D65:07D9
   226 0D65:07F8   227 0D65:081C   229 0D65:0842   230 0D65:0842
   232 0D65:0885   233 0D65:0894   234 0D65:08A7   238 0D65:08AC
   245 0D65:08B3   246 0D65:08C5   247 0D65:08CB   248 0D65:08E9
   249 0D65:0913   250 0D65:0931   252 0D65:0940   253 0D65:095D
   255 0D65:097A   256 0D65:09A0   257 0D65:09C6   259 0D65:09EC
   260 0D65:0A2B   261 0D65:0A52   262 0D65:0A82   263 0D65:0AA4
   264 0D65:0AC3   265 0D65:0AFB   267 0D65:0B27   269 0D65:0B4A
   270 0D65:0B86   271 0D65:0BA5   272 0D65:0BA8   273 0D65:0BE4
   275 0D65:0C01   276 0D65:0C3D   279 0D65:0C5B   281 0D65:0C84
   282 0D65:0CAA   283 0D65:0CC9   284 0D65:0CE8   286 0D65:0D0C
   288 0D65:0D2E   289 0D65:0D2E   291 0D65:0D6E   293 0D65:0D74
   294 0D65:0D83   295 0D65:0D96   296 0D65:0D98   297 0D65:0D9E
   301 0D65:0DA3   308 0D65:0DAA   309 0D65:0DBC   310 0D65:0DC2
   311 0D65:0DE0   312 0D65:0E0A   313 0D65:0E28   316 0D65:0E45
   317 0D65:0E62   319 0D65:0E7F   321 0D65:0E9E   322 0D65:0EBF
   323 0D65:0EDC   326 0D65:0EF9   327 0D65:0F1F   328 0D65:0F45
   329 0D65:0F6B   330 0D65:0F8A   331 0D65:0FA9   332 0D65:0FCD
   333 0D65:0FEB   334 0D65:1011   336 0D65:102F   337 0D65:103E
   338 0D65:1051   342 0D65:1056   347 0D65:105C   348 0D65:106F
   349 0D65:108E   350 0D65:10AC   351 0D65:10DC   352 0D65:110C
   353 0D65:113C   354 0D65:1158   355 0D65:1158   356 0D65:11CA
   357 0D65:11CA   358 0D65:123C   359 0D65:123C   361 0D65:12AE
   362 0D65:12B2   366 0D65:12B6   371 0D65:12BE   372 0D65:12D1
   373 0D65:12ED   374 0D65:130B   375 0D65:130B   376 0D65:13B2
   377 0D65:140D   378 0D65:142C   379 0D65:144B   380 0D65:1479
   381 0D65:149B   382 0D65:14B9   383 0D65:14EF   384 0D65:1512
   386 0D65:1535   388 0D65:1535   389 0D65:15A5   390 0D65:15A8
   392 0D65:15A8   394 0D65:15F2   396 0D65:15F2   399 0D65:163D
   403 0D65:163D   405 0D65:16E5   407 0D65:170E   408 0D65:1714
   412 0D65:171A   420 0D65:1721   421 0D65:1733   422 0D65:1739
   423 0D65:1757   424 0D65:1781   425 0D65:179F   427 0D65:17BC
   428 0D65:17D9   430 0D65:17F6   431 0D65:181C   432 0D65:1842
   434 0D65:1868   436 0D65:188B   437 0D65:18B1   438 0D65:18D0
   439 0D65:18D3   440 0D65:18F9   442 0D65:1916   443 0D65:193C
   446 0D65:195A   448 0D65:1983   449 0D65:19A9   450 0D65:19C8
   451 0D65:19E7   452 0D65:1A06   454 0D65:1A2A   455 0D65:1A2A
   457 0D65:1A6D   458 0D65:1A7C   459 0D65:1A8F   463 0D65:1A94
   471 0D65:1A9B   472 0D65:1AAD   474 0D65:1AC4   475 0D65:1AD6
   476 0D65:1ADC   477 0D65:1AFA   478 0D65:1B24   479 0D65:1B42
   481 0D65:1B51   482 0D65:1B6E   484 0D65:1B8B   485 0D65:1BB1
   486 0D65:1BD7   488 0D65:1BFD   489 0D65:1C3C   490 0D65:1C63
   491 0D65:1C6C   492 0D65:1C8B   493 0D65:1CB8   494 0D65:1CDA
   502 0D65:1CF9   504 0D65:1D1F   505 0D65:1D54   506 0D65:1D80
   509 0D65:1DB1   511 0D65:1DD4   512 0D65:1E10   513 0D65:1E2F
   514 0D65:1E32   515 0D65:1E6E   517 0D65:1E8B   518 0D65:1EC7
   521 0D65:1EE5   523 0D65:1F0E   524 0D65:1F2D   525 0D65:1F4C
   526 0D65:1F6B   527 0D65:1F8A   529 0D65:1FAE   530 0D65:1FAE
   532 0D65:1FF1   533 0D65:2000   534 0D65:2013   654 0D65:2018
   657 0D65:201B   658 0D65:202E   659 0D65:2041   660 0D65:2054
   664 0D65:2056   671 0D65:205C   672 0D65:2063   673 0D65:2071
   674 0D65:20A3   675 0D65:20B5   676 0D65:20C6   677 0D65:20CA
   680 0D65:20CE   682 0D65:20D1   684 0D65:20D1   685 0D65:2114
   686 0D65:2131   689 0D65:2133   691 0D65:2136   693 0D65:2136
   694 0D65:2179   695 0D65:2196   699 0D65:2198   703 0D65:21A0
   704 0D65:21BE   706 0D65:21D5   710 0D65:21D5   711 0D65:227D
   712 0D65:2282   715 0D65:2288   717 0D65:228B   718 0D65:229E
   724 0D65:22A0   728 0D65:22A6   729 0D65:22CA   730 0D65:22E7
   731 0D65:2313   732 0D65:2348   733 0D65:234C   738 0D65:2350
   740 0D65:2357   742 0D65:235C   744 0D65:2364   746 0D65:2364
   747 0D65:23A1   748 0D65:23B8   751 0D65:2417   753 0D65:242C
   754 0D65:243E   756 0D65:244F   758 0D65:2461   761 0D65:2461
   762 0D65:248D   765 0D65:248D   766 0D65:24D0   769 0D65:24D2
   772 0D65:24D2   773 0D65:2521   776 0D65:2521   778 0D65:2546
   779 0D65:2558   781 0D65:256A   782 0D65:256F   784 0D65:259A
   785 0D65:25D0   788 0D65:25E9   791 0D65:25E9   792 0D65:2639
   793 0D65:263F   797 0D65:265D   798 0D65:2684   799 0D65:2684
   801 0D65:26BB   803 0D65:26DA   805 0D65:26DC   807 0D65:270F
   808 0D65:2742   811 0D65:2744   812 0D65:276B   813 0D65:276B
   815 0D65:27B0   816 0D65:27DB   817 0D65:27E0   818 0D65:27E5
   821 0D65:27EA   825 0D65:27F0   826 0D65:2812   828 0D65:2817
   830 0D65:2839   831 0D65:2868   832 0D65:287E   834 0D65:287E
   835 0D65:28D7   837 0D65:28EC   838 0D65:291B   842 0D65:292D
   843 0D65:295C   844 0D65:2970   846 0D65:2986   847 0D65:29B4
   848 0D65:29B9   851 0D65:29BC   853 0D65:29D1   854 0D65:2A00
   858 0D65:2A11   859 0D65:2A40   860 0D65:2A54   862 0D65:2A69
   864 0D65:2A69   866 0D65:2AC5   867 0D65:2AE2   868 0D65:2AE7
   869 0D65:2AEB   873 0D65:2AEF   878 0D65:2AF5   880 0D65:2B0A
   882 0D65:2B1F   883 0D65:2B47   884 0D65:2B47   885 0D65:2B92
   886 0D65:2BBA   887 0D65:2BBA   888 0D65:2C09   891 0D65:2C0C
   893 0D65:2C0C   894 0D65:2C69   895 0D65:2C90   896 0D65:2CBE
   898 0D65:2CE6   899 0D65:2CEA   903 0D65:2CEE   910 0D65:2CF4
   912 0D65:2CFB   913 0D65:2D1C   914 0D65:2D1C   916 0D65:2D77
   917 0D65:2D7C   921 0D65:2D80   925 0D65:2D86   926 0D65:2D9A
   927 0D65:2D9A   928 0D65:2DD4   929 0D65:2E06   930 0D65:2E0A
   933 0D65:2E0E   935 0D65:2E14   936 0D65:2E19   937 0D65:2E4A
   938 0D65:2E4F   941 0D65:2E53   943 0D65:2E56   945 0D65:2E71
   947 0D65:2E85   948 0D65:2E97   950 0D65:2EA9   951 0D65:2EAD
   956 0D65:2EB7   958 0D65:2EBF   960 0D65:2EC4   961 0D65:2ECB
   963 0D65:2ED9   964 0D65:2EF1   966 0D65:2F05   967 0D65:2F16
   970 0D65:2F22   971 0D65:2F35   972 0D65:2F4A   973 0D65:2F52
   976 0D65:2F72   978 0D65:2F84   979 0D65:2F84   980 0D65:2FB0
   981 0D65:2FB9   982 0D65:2FC5   984 0D65:2FDE   986 0D65:2FE1
   988 0D65:2FF3   989 0D65:2FF3   990 0D65:3020   991 0D65:3029
   992 0D65:3035   993 0D65:304E   994 0D65:3050   999 0D65:3071
  1002 0D65:3074  1004 0D65:3086  1005 0D65:3086  1006 0D65:30B2
  1007 0D65:30BB  1008 0D65:30C7  1009 0D65:30E0  1012 0D65:30E2
  1013 0D65:30F3  1015 0D65:310B  1016 0D65:3115  1017 0D65:311F
  1020 0D65:3129  1022 0D65:312C  1024 0D65:313E  1025 0D65:313E
  1026 0D65:316B  1027 0D65:3174  1028 0D65:3180  1029 0D65:3199
  1032 0D65:319B  1033 0D65:31AC  1035 0D65:31C4  1036 0D65:31CE
  1037 0D65:31D8  1040 0D65:31E2  1042 0D65:31E5  1043 0D65:31F7
  1044 0D65:3200  1045 0D65:320C  1048 0D65:3225  1054 0D65:3247
  1055 0D65:3269  1056 0D65:3269  1058 0D65:328E  1059 0D65:329B
  1061 0D65:329E  1064 0D65:32C8  1065 0D65:32F4  1066 0D65:3316
  1067 0D65:3335  1068 0D65:3356  1069 0D65:3381  1070 0D65:338E
  1072 0D65:3391  1074 0D65:3391  1075 0D65:33D9  1077 0D65:33D9
  1078 0D65:3433  1082 0D65:343F  1085 0D65:343F  1086 0D65:34C8
  1090 0D65:34C8  1091 0D65:3570  1092 0D65:3579  1095 0D65:3586
  1096 0D65:3586  1097 0D65:35AF  1098 0D65:35B4  1099 0D65:35B9
  1100 0D65:35D8  1101 0D65:35D8  1102 0D65:3601  1103 0D65:360D
  1104 0D65:361A  1105 0D65:361F  1107 0D65:3622  1108 0D65:3643
  1109 0D65:3648  1118 0D65:3648  1119 0D65:3718  1121 0D65:3718
  1122 0D65:377B  1123 0D65:3780  1140 0D65:378E  1141 0D65:37AC
  1142 0D65:37CB  1145 0D65:37CE  1146 0D65:37ED  1147 0D65:380F
  1148 0D65:3814  1151 0D65:3817  1153 0D65:381E  1156 0D65:3826
  1159 0D65:3839  1160 0D65:3843  1161 0D65:384D  1162 0D65:3853
  1169 0D65:3858  1171 0D65:386D  1172 0D65:3879  1173 0D65:3889
  1176 0D65:388F  1178 0D65:389D  1179 0D65:38A6  1180 0D65:38C0
  1181 0D65:38D7  1182 0D65:38EA  1183 0D65:38F6  1186 0D65:3910
  1187 0D65:3920  1189 0D65:3926  1190 0D65:392C  1191 0D65:393F
  1192 0D65:394B  1193 0D65:3957  1194 0D65:3961  1197 0D65:3964
  1198 0D65:3967  1202 0D65:399F  1204 0D65:39A5  1206 0D65:39C9
  1207 0D65:39DB  1209 0D65:39F8  1210 0D65:3A0D  1212 0D65:3A41
  1213 0D65:3A45  1216 0D65:3A49  1221 0D65:3A4F  1223 0D65:3A62
  1224 0D65:3A74  1225 0D65:3A81  1227 0D65:3A8E  1228 0D65:3AC0
  1230 0D65:3ADD  1231 0D65:3B0B  1232 0D65:3B40  1233 0D65:3B44
  1259 0D65:3B48  1262 0D65:3B4E  1265 0D65:3B60  1266 0D65:3B6E
  1267 0D65:3B90  1269 0D65:3BA8  1270 0D65:3BA8  1271 0D65:3BE7
  1273 0D65:3BF0  1274 0D65:3C09  1275 0D65:3C0F  1276 0D65:3C11
  1278 0D65:3C17  1279 0D65:3C2C  1281 0D65:3C54  1283 0D65:3C5B
  1284 0D65:3C66  1285 0D65:3C71  1286 0D65:3C7F  1287 0D65:3C8E
  1289 0D65:3C95  1290 0D65:3C9D  1294 0D65:3CD8  1298 0D65:3CDC
  1304 0D65:3CE2  1306 0D65:3D02  1307 0D65:3D17  1309 0D65:3D45
  1310 0D65:3D64  1311 0D65:3D74  1312 0D65:3D7C  1315 0D65:3D7E
  1316 0D65:3D8A  1317 0D65:3D95  1319 0D65:3D98  1320 0D65:3D9C
  1324 0D65:3DA0  1330 0D65:3DA6  1331 0D65:3DBF  1333 0D65:3DC4
  1335 0D65:3DE4  1336 0D65:3DE4  1337 0D65:3E24  1338 0D65:3E36
  1339 0D65:3E59  1343 0D65:3E5C  1344 0D65:3E71  1346 0D65:3E7A
  1348 0D65:3EAD  1349 0D65:3EC8  1350 0D65:3ED4  1351 0D65:3EDA
  1352 0D65:3EF8  1353 0D65:3F0C  1356 0D65:3F0F  1357 0D65:3F2B
  1358 0D65:3F31  1359 0D65:3F42  1360 0D65:3F5D  1361 0D65:3F63
  1362 0D65:3F76  1363 0D65:3F7C  1364 0D65:3F9A  1365 0D65:3FA6
  1366 0D65:3FC1  1368 0D65:3FC4  1369 0D65:3FC9  1370 0D65:3FCE
  1371 0D65:3FD3  1375 0D65:3FD7  1380 0D65:3FDD  1381 0D65:3FE9
  1384 0D65:3FF5  1385 0D65:4005  1387 0D65:400E  1388 0D65:400E
  1389 0D65:404C  1390 0D65:406D  1391 0D65:4079  1395 0D65:4091
  1396 0D65:4095  1399 0D65:4099  1403 0D65:409F  1406 0D65:40A4
  1408 0D65:40BC  1409 0D65:40C3  1410 0D65:40C3  1411 0D65:4138
  1412 0D65:413D  1416 0D65:4141  1420 0D65:4147  1421 0D65:414C
  1422 0D65:415A  1424 0D65:4168  1425 0D65:4170  1426 0D65:4170
  1428 0D65:41DF  1429 0D65:41FE  1430 0D65:4227  1432 0D65:4239
  1433 0D65:423E  1437 0D65:4242  1443 0D65:4248  1444 0D65:4263
  1445 0D65:4273  1446 0D65:427F  1447 0D65:429B  1448 0D65:42C9
  1449 0D65:42CF  1450 0D65:42EB  1451 0D65:42F1  1452 0D65:4302
  1453 0D65:431D  1454 0D65:4336  1455 0D65:433B  1458 0D65:433F
  1463 0D65:4345  1464 0D65:4350  1465 0D65:4358  1466 0D65:4360
  1467 0D65:4378  1469 0D65:437F  1470 0D65:4397  1471 0D65:43B0
  1473 0D65:43DA  1474 0D65:43DE  1477 0D65:43E2  1482 0D65:43E8
  1483 0D65:440B  1485 0D65:4420  1486 0D65:4438  1487 0D65:4450
  1489 0D65:4469  1491 0D65:4470  1492 0D65:447B  1493 0D65:4483
  1494 0D65:448B  1497 0D65:44B7  1501 0D65:44BB  1507 0D65:44C1
  1509 0D65:44D2  1511 0D65:44D9  1512 0D65:44E4  1513 0D65:44EA
  1514 0D65:4507  1515 0D65:451A  1516 0D65:4522  1518 0D65:4533
  1519 0D65:4538  1522 0D65:453C  1526 0D65:4543  1530 0D65:4549
  1531 0D65:4558  1532 0D65:455E  1533 0D65:457B  1534 0D65:4585
  1536 0D65:45BB  1537 0D65:45BF  1542 0D65:45C4  1545 0D65:45CA
  1546 0D65:45E8  1547 0D65:45F5  1548 0D65:4603  1552 0D65:4607
  1556 0D65:460E  1558 0D65:4616  1560 0D65:4616  1562 0D65:46B1
  1563 0D65:46B6  1566 0D65:46BB  1570 0D65:46C1  1571 0D65:46C8
  1572 0D65:46C8  1573 0D65:4752  1574 0D65:4757  1579 0D65:475B
  1582 0D65:4761  1583 0D65:477D  1584 0D65:479C  1585 0D65:47A8
  1590 0D65:47AC  1593 0D65:47B2  1594 0D65:47B8  1595 0D65:47DA
  1596 0D65:47DF  1601 0D65:47E3  1606 0D65:47E9  1607 0D65:47F0
  1611 0D65:47F6  1612 0D65:4806  1614 0D65:4833  1616 0D65:483B
  1617 0D65:4840  1622 0D65:4844  1626 0D65:484A  1627 0D65:4856
  1628 0D65:4868  1629 0D65:4875  1630 0D65:4888  1632 0D65:488E
  1633 0D65:489A  1634 0D65:48A3  1637 0D65:48A9  1639 0D65:48B1
  1640 0D65:48C2  1641 0D65:48CC  1642 0D65:48DE  1643 0D65:48EF
  1644 0D65:4901  1645 0D65:4913  1647 0D65:4933  1648 0D65:494E
  1649 0D65:4961  1651 0D65:4967  1652 0D65:4973  1654 0D65:497C
  1659 0D65:498E  1665 0D65:4992  1668 0D65:4998  1669 0D65:49A3
  1670 0D65:49C8  1671 0D65:49D6  1675 0D65:49DA  1677 0D65:49DD
  1678 0D65:49F0  1679 0D65:4A03  1683 0D65:4A05  1686 0D65:4A08
  1688 0D65:4A27  1689 0D65:4A4F  1690 0D65:4A6F  1692 0D65:4A8F
  1696 0D65:4A91  1698 0D65:4A97  1700 0D65:4AAE  1702 0D65:4AB3
  1703 0D65:4AD5  1704 0D65:4AD7  1705 0D65:4ADC  1706 0D65:4ADC
  1707 0D65:4B1D  1709 0D65:4B1D  1710 0D65:4B76  1712 0D65:4B79
  1713 0D65:4B9B  1716 0D65:4BA3  1717 0D65:4BA3  1718 0D65:4BE4
  1720 0D65:4BE4  1722 0D65:4C3D  1725 0D65:4C42  1729 0D65:4C46
  1731 0D65:4C4C  1732 0D65:4C58  1733 0D65:4C8D  1734 0D65:4C93
  1735 0D65:4C97  1738 0D65:4C9B  1740 0D65:4CA1  1741 0D65:4CAD
  1742 0D65:4CDD  1743 0D65:4CE3  1744 0D65:4CE7  1815 0D65:4CEB
  1817 0D65:4CEE  1818 0D65:4D01  1819 0D65:4D17  1821 0D65:4D19
  1823 0D65:4D1C  1824 0D65:4D26  1825 0D65:4D30  1826 0D65:4D35
  1828 0D65:4D37  1830 0D65:4D3A  1831 0D65:4D43  1832 0D65:4D4D
  1833 0D65:4D52  1846 0D65:4D54  1850 0D65:4D5A  1851 0D65:4D61
  1853 0D65:4D72  1854 0D65:4D72  1856 0D65:4DCA
Line numbers for GRAPHLIB.OBJ(GRAPHLIB.C) segment GRAPHLIB_TEXT

    49 1241:000E    51 1241:0014    54 1241:0019    55 1241:0022
    57 1241:002B    58 1241:0047    60 1241:0050    63 1241:0066
    64 1241:006C    65 1241:0072    66 1241:0078    67 1241:0080
    68 1241:0088    69 1241:008E    70 1241:0093    72 1241:0096
    73 1241:009C    74 1241:00A2    75 1241:00A8    76 1241:00B2
    77 1241:00BA    78 1241:00C0    79 1241:00C5    81 1241:00C8
    82 1241:00CE    83 1241:00D4    84 1241:00DA    85 1241:00E4
    86 1241:00EC    87 1241:00F2    88 1241:00F7    90 1241:00F9
    91 1241:00FF    92 1241:0105    93 1241:010B    94 1241:0115
    95 1241:011D    96 1241:0123    97 1241:0128    99 1241:012A
   100 1241:0130   101 1241:0136   102 1241:013C   103 1241:0144
   104 1241:014C   105 1241:0152   106 1241:0157   108 1241:0159
   109 1241:0165   112 1241:0167   113 1241:017E   115 1241:0186
   117 1241:018C   118 1241:019C   119 1241:01A2   120 1241:01A4
   122 1241:01AA   123 1241:01CD   124 1241:01D3   125 1241:01D9
   128 1241:01EF   131 1241:01F5   132 1241:01FA   133 1241:0229
   136 1241:022D   138 1241:0230   139 1241:023B   140 1241:0244
   144 1241:0246   146 1241:0249   147 1241:0252   148 1241:0257
   150 1241:0259   153 1241:025F   154 1241:026B   155 1241:027D
   156 1241:02A9   157 1241:02BD   159 1241:02C1   161 1241:02C4
   162 1241:02CD   163 1241:02E0   165 1241:02E2   170 1241:02E8
   171 1241:0306   173 1241:030E   174 1241:0326   176 1241:032C
   177 1241:0373   178 1241:0386   179 1241:039C   180 1241:03A9
   181 1241:03AE   184 1241:03B2   186 1241:03B8   188 1241:03BD
   192 1241:03DA   193 1241:0400   190 1241:0403   195 1241:040F
   197 1241:0413   199 1241:0419   200 1241:041F   201 1241:0425
   202 1241:0437   204 1241:043B   206 1241:043E   207 1241:0447
   208 1241:0458   210 1241:045A   213 1241:0460   214 1241:0474
   215 1241:0486   217 1241:048A   220 1241:0490   221 1241:04A4
   222 1241:04B9   224 1241:04BD   226 1241:04C3   227 1241:04D5
   228 1241:04E9   229 1241:050E   230 1241:0520   232 1241:0524
   234 1241:0527   235 1241:053D   237 1241:053F   239 1241:0542
   240 1241:0557   242 1241:0559   245 1241:055F   246 1241:056B
   247 1241:0577   248 1241:0589   249 1241:059B   250 1241:05AF
   252 1241:05B3   254 1241:05B6   255 1241:05BE   256 1241:05D1
   258 1241:05D3   262 1241:05D9   263 1241:05E5   264 1241:05FD
   265 1241:0605   266 1241:0618   267 1241:062A   271 1241:062E
   273 1241:0631   274 1241:063E   275 1241:0652   278 1241:0654
   281 1241:065A   282 1241:0666   283 1241:0672   284 1241:0684
   285 1241:0696   286 1241:06AA   289 1241:06AE   291 1241:06B1
   292 1241:06C4   293 1241:06D7   294 1241:06EA   295 1241:06FD
   297 1241:06FF   299 1241:0702   300 1241:070A   301 1241:071D
   303 1241:071F   305 1241:0725   306 1241:072A   307 1241:073C
   308 1241:074E   310 1241:0760   311 1241:0771   313 1241:0775
   315 1241:0778   316 1241:0780   317 1241:0790   376 1241:0792
   379 1241:0798   380 1241:07A4   381 1241:07B6   382 1241:07CA
   383 1241:07DB   385 1241:07DF   388 1241:07E5   389 1241:07F1
   390 1241:0803   391 1241:0812   394 1241:0816   396 1241:0819
   397 1241:082A   398 1241:0834   399 1241:083E   400 1241:0843
   402 1241:0845   404 1241:0848   405 1241:0859   406 1241:0863
   407 1241:0868   411 1241:086A   413 1241:086D   414 1241:0895
   415 1241:08BD   416 1241:08CE   417 1241:08DF   418 1241:08F5
   419 1241:090B   421 1241:090D   423 1241:0910   424 1241:0931
   425 1241:0959   426 1241:096A   427 1241:097B   428 1241:098D
   429 1241:099F   433 1241:09A1   437 1241:09A7   438 1241:09B7
   439 1241:09BF   440 1241:09E6   441 1241:0A00   443 1241:0A04
   446 1241:0A0A   447 1241:0A1A   448 1241:0A22   449 1241:0A58
   451 1241:0A5C   454 1241:0A5F   455 1241:0A78   457 1241:0A8A
   458 1241:0A92   460 1241:0AB6   463 1241:0AB8   468 1241:0ABE
   469 1241:0AF6   470 1241:0B0F   472 1241:0B21   473 1241:0B29
   475 1241:0B42   479 1241:0B46   486 1241:0B4C   487 1241:0B61
   488 1241:0B73   489 1241:0B7E   491 1241:0B91   494 1241:0BA7
   497 1241:0BAB   499 1241:0BB1   501 1241:0BB6   502 1241:0BCE
   503 1241:0BDF   504 1241:0BF0   505 1241:0C01   506 1241:0C1B
   507 1241:0C26   509 1241:0C2A   511 1241:0C30   513 1241:0C35
   514 1241:0C41   515 1241:0C52   516 1241:0C63   517 1241:0C7A
   518 1241:0C85   520 1241:0C89   525 1241:0C8F   526 1241:0CA7
   527 1241:0CB8   528 1241:0CC9   530 1241:0CED   531 1241:0D02
   532 1241:0D22   534 1241:0D26   535 1241:0D3D   536 1241:0D42
   540 1241:0D46   545 1241:0D4C   548 1241:0D5F   549 1241:0D64
   550 1241:0D69   551 1241:0D6E   553 1241:0D70   554 1241:0D75
   555 1241:0D7A   556 1241:0D7F   558 1241:0D81   559 1241:0D86
   566 1241:0D8D   568 1241:0DAD   569 1241:0DB8   571 1241:0DC3
   572 1241:0DCE   574 1241:0DD9   575 1241:0DE4   576 1241:0DEF
   577 1241:0DFA   578 1241:0E05   579 1241:0E10   580 1241:0E1B
   581 1241:0E26   582 1241:0E31   583 1241:0E3C   584 1241:0E47
   585 1241:0E52   586 1241:0E5D   587 1241:0E68   588 1241:0E73
   589 1241:0E7E   590 1241:0E89   591 1241:0E94   592 1241:0E9F
   593 1241:0EAA   594 1241:0EB5   595 1241:0EC0   597 1241:0ECB
   598 1241:0ED6   600 1241:0EE1   601 1241:0EEC   602 1241:0EF7
   603 1241:0F02   604 1241:0F0D   606 1241:0F18   607 1241:0F23
   608 1241:0F2E   609 1241:0F39   611 1241:0F44   612 1241:0F4F
   614 1241:0F5A   615 1241:0F65   616 1241:0F6F   618 1241:0F79
   619 1241:0F83   620 1241:0F8D   621 1241:0F97   622 1241:0FA1
   623 1241:0FAB   625 1241:0FB5   626 1241:0FBF   627 1241:0FC9
   628 1241:0FD3   629 1241:0FDD   634 1241:0FE7   635 1241:1012
   637 1241:102D   638 1241:1043   640 1241:1052   641 1241:1056
   643 1241:112E   648 1241:1134   650 1241:113E   652 1241:1163
   653 1241:1173   655 1241:1183   656 1241:1193   657 1241:11AA
   658 1241:11AF   659 1241:11C1   660 1241:11C6   662 1241:11E0
   663 1241:11EC   664 1241:11FF   665 1241:1204   667 1241:1207
   668 1241:120D   669 1241:1223   670 1241:1236   672 1241:123E
   673 1241:124A   674 1241:125D   675 1241:1262   678 1241:1265
   679 1241:126A   680 1241:1283   681 1241:129D   682 1241:12C3
   683 1241:12E1   684 1241:12E6   685 1241:12FB   686 1241:1300
   687 1241:1316   690 1241:1323   691 1241:1329   692 1241:1333
   693 1241:133D   694 1241:1342   695 1241:1348   699 1241:134C
   702 1241:1352   703 1241:1370   704 1241:1387   705 1241:1390
   710 1241:1394   715 1241:139A   716 1241:13A2   717 1241:13B5
   719 1241:13C7   720 1241:13D9   721 1241:13F1   723 1241:13FE
   724 1241:1418   725 1241:1418   726 1241:1457   727 1241:146F
   728 1241:147E   729 1241:1481   730 1241:1496   731 1241:14A2
   732 1241:14C0   734 1241:14C3   735 1241:14C6   737 1241:14D6
   740 1241:14DC   741 1241:14E4   743 1241:14EA   744 1241:14F2
   746 1241:14FA   747 1241:14FF   750 1241:1503   752 1241:1506
   753 1241:150B   754 1241:1524   755 1241:1529   757 1241:152B
   759 1241:152E   760 1241:1533   761 1241:1547   762 1241:154C
   764 1241:154E   766 1241:1551   767 1241:1556   768 1241:156C
   769 1241:1571   771 1241:1573   773 1241:1576   774 1241:157B
   775 1241:1591   776 1241:1596   779 1241:1598   783 1241:159E
   785 1241:15B1   786 1241:15B7   787 1241:15BD   789 1241:15C3
   790 1241:15C9   791 1241:15DF   793 1241:15E6   794 1241:15EC
   795 1241:1602   801 1241:160B   802 1241:1611   803 1241:1627
   804 1241:162D   805 1241:1633   806 1241:1639   807 1241:164F
   808 1241:1655   809 1241:165B   811 1241:1671   812 1241:1677
   813 1241:167D   814 1241:1683   816 1241:1689   817 1241:168E
   820 1241:1692   822 1241:1698   824 1241:169D   825 1241:16AA
   826 1241:16B0   827 1241:16B6   828 1241:16BC   829 1241:16C2
   830 1241:16D8   832 1241:16DF   833 1241:16E8   834 1241:16F1
   835 1241:16F6   838 1241:16F8   839 1241:16FE   840 1241:1704
   841 1241:171A   843 1241:1721   844 1241:172A   845 1241:1733
   848 1241:1738   849 1241:173E   850 1241:1744   851 1241:174A
   853 1241:174E   856 1241:1754   858 1241:175D   859 1241:1763
   860 1241:1769   861 1241:177F   862 1241:1785   863 1241:178B
   866 1241:178F   869 1241:1795   871 1241:179E   872 1241:17A4
   873 1241:17AA   874 1241:17C0   875 1241:17C6   876 1241:17CC
   878 1241:17D0   881 1241:17D6   882 1241:17DF   883 1241:17E5
   884 1241:17EB   885 1241:17F1   886 1241:17F7   887 1241:180D
   888 1241:1813   889 1241:1819   892 1241:181D   900 1241:1823
   901 1241:183B   906 1241:184D   907 1241:185E   908 1241:1870
   909 1241:1886   910 1241:1894   911 1241:18A7   912 1241:18AF
   914 1241:18AF   916 1241:1969   917 1241:198E   919 1241:19A9
   921 1241:19B3   922 1241:19BA   923 1241:19BF   927 1241:19C3
   932 1241:19C9   933 1241:19CF   934 1241:19E8   935 1241:19F1
   937 1241:19FC   938 1241:1A25   939 1241:1A29   940 1241:1A59
   941 1241:1A73   942 1241:1A89   943 1241:1A8D   946 1241:1A91
   950 1241:1A97   951 1241:1A9F   953 1241:1AB6   955 1241:1ADE
   956 1241:1AF0   957 1241:1AF4   958 1241:1B1D   959 1241:1B66
   960 1241:1BB0   961 1241:1BB4   963 1241:1BC2   964 1241:1BD8
   967 1241:1BDC   971 1241:1BE2   972 1241:1BEA   974 1241:1BFE
   975 1241:1C26   976 1241:1C38   977 1241:1C3C   978 1241:1C65
   979 1241:1CAE   980 1241:1CF8   982 1241:1D08   984 1241:1D0C
   987 1241:1D12   988 1241:1D1A   990 1241:1D3F   991 1241:1D59
   992 1241:1D70   993 1241:1D86   994 1241:1D99   996 1241:1DA7
   997 1241:1DBD  1000 1241:1DC1  1004 1241:1DC7  1005 1241:1DCF
  1007 1241:1DE3  1008 1241:1E00  1009 1241:1E28  1010 1241:1E54
  1011 1241:1E80  1012 1241:1E91  1013 1241:1EA3  1014 1241:1EB5
  1015 1241:1EC7  1016 1241:1ED9  1017 1241:1EEB  1018 1241:1F0C
  1019 1241:1F1E  1020 1241:1F30  1021 1241:1F42  1022 1241:1F53
  1023 1241:1F55  1024 1241:1F57  1025 1241:1F6B  1026 1241:1F8D
  1027 1241:1FA3  1032 1241:1FA7  1036 1241:1FAD  1038 1241:1FB7
  1039 1241:1FD6  1040 1241:1FFD  1042 1241:2020  1044 1241:2029
  1045 1241:2029  1046 1241:2061  1047 1241:2069  1048 1241:2091
  1051 1241:20BE  1052 1241:20EC  1054 1241:2116  1055 1241:2121
  1058 1241:2141  1062 1241:215D  1065 1241:217A  1067 1241:218C
  1068 1241:2191  1071 1241:2194  1072 1241:21A5  1075 1241:21A8
  1077 1241:21AE  1078 1241:21DC  1079 1241:21EC  1080 1241:2216
  1082 1241:221F  1084 1241:2222  1085 1241:2245  1087 1241:2248
  1088 1241:225C  1089 1241:2286  1090 1241:22B9  1093 1241:22BC
  1094 1241:22D7  1095 1241:2301  1096 1241:2335  1097 1241:2338
  1100 1241:233B  1101 1241:2345  1102 1241:2367  1103 1241:236A
  1104 1241:2394  1106 1241:23A5  1107 1241:23AE  1108 1241:23B6
  1109 1241:23B9  1110 1241:23D1  1112 1241:23E4  1113 1241:23F4
  1114 1241:2402  1115 1241:2405  1119 1241:240D  1120 1241:241F
  1122 1241:2455  1123 1241:2489  1125 1241:2495  1131 1241:24AE
  1133 1241:24B4  1134 1241:24CA  1137 1241:24D7  1138 1241:24E4
  1139 1241:24ED  1142 1241:2515  1150 1241:251B  1152 1241:2520
  1153 1241:2538  1154 1241:2562  1156 1241:256F  1158 1241:2598
  1159 1241:25A5  1160 1241:25B5  1162 1241:25C5  1163 1241:25E9
  1164 1241:2610  1166 1241:2629  1167 1241:2643  1169 1241:2669
  1171 1241:2671  1172 1241:2696  1173 1241:269F  1176 1241:26B5
  1178 1241:26BD  1179 1241:26E2  1180 1241:2704  1183 1241:271A
  1184 1241:271A  1186 1241:274E  1187 1241:2764  1188 1241:2771
  1189 1241:277A  1192 1241:277E  1198 1241:2784  1199 1241:279C
  1201 1241:27CC  1202 1241:27E4  1203 1241:27EE  1204 1241:27FC
  1206 1241:2802  1207 1241:2827  1208 1241:282E  1209 1241:2830
  1211 1241:2838  1212 1241:2854  1213 1241:285F  1214 1241:2870
  1216 1241:2876  1217 1241:28A4  1218 1241:28AC  1219 1241:28AE
  1221 1241:28B7  1222 1241:28D3  1224 1241:28DE  1225 1241:28F5
  1226 1241:28F9  1228 1241:2908  1229 1241:2923  1230 1241:2927
  1232 1241:2936  1233 1241:2955  1234 1241:2959  1236 1241:2968
  1237 1241:2983  1238 1241:2998  1239 1241:299D  1242 1241:29A1
  1244 1241:29A4  1245 1241:29D5  1246 1241:2A16  1247 1241:2A23
  1248 1241:2A28  1251 1241:2A2A  1258 1241:2A30  1260 1241:2A35
  1261 1241:2A46  1262 1241:2A70  1264 1241:2A76  1265 1241:2AA1
  1267 1241:2AB3  1268 1241:2ABE  1269 1241:2AC2  1274 1241:2AC6
  1276 1241:2AC9  1277 1241:2ACF  1279 1241:2AD1  1281 1241:2AD4
  1282 1241:2ADA  1285 1241:2ADC  1287 1241:2ADF  1288 1241:2AEC
  1291 1241:2AEE  1293 1241:2AF1  1294 1241:2AFE  1298 1241:2B00
  1300 1241:2B03  1301 1241:2B0D  1302 1241:2B1D  1303 1241:2B2E
  1306 1241:2B30  1311 1241:2B36  1312 1241:2B3D  1313 1241:2B73
  1314 1241:2B78  1317 1241:2B7C  1322 1241:2B82  1323 1241:2B8E
  1324 1241:2BAA  1325 1241:2BD0  1326 1241:2BDC  1327 1241:2BED
  1328 1241:2C0D  1332 1241:2C11  1335 1241:2C14  1336 1241:2C1D
  1337 1241:2C25  1338 1241:2C38  1342 1241:2C3A  1344 1241:2C40
  1347 1241:2C46  1348 1241:2C50  1349 1241:2C6C  1350 1241:2C8F
  1352 1241:2C97  1353 1241:2CC9  1355 1241:2CD6  1356 1241:2CE2
  1357 1241:2CFF  1359 1241:2D01  1361 1241:2D51  1365 1241:2D55
  1368 1241:2D5B  1370 1241:2D60  1371 1241:2D6E  1372 1241:2D90
  1373 1241:2DA6  1374 1241:2DB9  1375 1241:2DD7  1377 1241:2DDE
  1379 1241:2DEA  1381 1241:2E18  1382 1241:2E29  1383 1241:2E38
  1385 1241:2E3C  1387 1241:2E5C  1388 1241:2E66  1389 1241:2E7A
  1390 1241:2E87  1391 1241:2E90  1394 1241:2E94  1398 1241:2E9A
  1399 1241:2EA6  1400 1241:2ECB  1402 1241:2EE8  1403 1241:2EED
  1407 1241:2EF1  1413 1241:2EF7  1415 1241:2F22  1416 1241:2F3C
  1418 1241:2F4A  1419 1241:2F5F  1421 1241:2F6D  1422 1241:2F79
  1424 1241:2F92  1425 1241:2FAA  1427 1241:2FC0  1428 1241:2FDC
  1430 1241:2FEB  1432 1241:2FF9  1433 1241:3002  1434 1241:3008
  1435 1241:3016  1438 1241:301A  1440 1241:301D  1441 1241:3026
  1442 1241:302D  1443 1241:303F  1444 1241:304E  1447 1241:3050
  1452 1241:3056  1454 1241:305E  1455 1241:3065  1456 1241:306C
  1457 1241:30CF  1461 1241:30D3  1467 1241:30D9  1468 1241:30E2
  1470 1241:31FD  1473 1241:32DC  1475 1241:32E4  1476 1241:32E8
  1478 1241:32EF  1480 1241:3329  1482 1241:336F  1483 1241:3374
  1486 1241:3378  1489 1241:337E  1492 1241:3390  1493 1241:33A3
  1494 1241:33B0  1495 1241:33B6  1496 1241:33BC  1497 1241:33C2
  1498 1241:33C8  1499 1241:33CE  1500 1241:33D4  1501 1241:33DA
  1502 1241:33E0  1503 1241:33F4  1504 1241:33F9  1506 1241:33FE
  1507 1241:341C  1508 1241:3441  1510 1241:3460  1511 1241:3464
  1512 1241:347F  1513 1241:3499  1514 1241:34BF  1515 1241:34EA
  1516 1241:34F2  1517 1241:3519  1519 1241:353F  1522 1241:3543
  1527 1241:3549  1528 1241:3568  1529 1241:356C  1530 1241:3575
  1531 1241:359D  1532 1241:35A3  1533 1241:35AC  1535 1241:35D4
  1536 1241:35E7  1537 1241:3605  1538 1241:362A  1539 1241:363E
  1540 1241:3656  1541 1241:3674  1543 1241:367A  1544 1241:369D
  1545 1241:36B5  1547 1241:36DA  1550 1241:36DE  1552 1241:36E1
  1553 1241:3700  1554 1241:371A  1555 1241:3729  1556 1241:3735
  1557 1241:3739  1560 1241:373B  1561 1241:373E
Line numbers for GRVIEW.OBJ(GRVIEW.C) segment GRVIEW_TEXT

    21 15B6:0007    23 15B6:000A    25 15B6:003B    26 15B6:0045
    27 15B6:004F    28 15B6:0059    29 15B6:0063    30 15B6:0072
    31 15B6:0083    37 15B6:008D    39 15B6:0094    42 15B6:00B2
    43 15B6:00C9    44 15B6:00E2    47 15B6:00FB    48 15B6:0100
    49 15B6:0126    52 15B6:013D    53 15B6:0147    55 15B6:0159
    56 15B6:015E    57 15B6:0165    58 15B6:0188    61 15B6:01A1
    62 15B6:01A7    63 15B6:01AC    64 15B6:01D2    65 15B6:01F8
    67 15B6:0219    68 15B6:022D    69 15B6:0241    71 15B6:0253
    72 15B6:0270    73 15B6:0286    74 15B6:0297    75 15B6:02B0
    76 15B6:02CD    77 15B6:02E2    78 15B6:02F7    80 15B6:0309
    81 15B6:031B    82 15B6:033D    83 15B6:0354    85 15B6:0368
    88 15B6:0378    89 15B6:037E    90 15B6:03A5    91 15B6:03AC
    93 15B6:03D2    94 15B6:03F0    95 15B6:040D    98 15B6:0411
   101 15B6:0418   102 15B6:041D   103 15B6:043A   105 15B6:0451
   106 15B6:046F   109 15B6:0487   110 15B6:0491   113 15B6:04A3
   114 15B6:04A8   115 15B6:04AF   116 15B6:04D2   119 15B6:04EB
   120 15B6:04F1   121 15B6:04F6   122 15B6:051C   123 15B6:0542
   125 15B6:0563   126 15B6:0577   127 15B6:058B   129 15B6:059D
   130 15B6:05BA   131 15B6:05D0   132 15B6:05E1   133 15B6:05FA
   134 15B6:0617   135 15B6:062C   137 15B6:063E   138 15B6:0650
   139 15B6:0672   140 15B6:0689   142 15B6:069D   146 15B6:06AD
   147 15B6:06B3   148 15B6:06DA   149 15B6:06E1   151 15B6:0707
   152 15B6:0716   153 15B6:0734   155 15B6:0751   159 15B6:0755
   160 15B6:075B   161 15B6:077A   162 15B6:0794   164 15B6:07C4
   165 15B6:07D5   166 15B6:07E6   167 15B6:07F6   168 15B6:0800
   169 15B6:0813   170 15B6:081E   173 15B6:0828   174 15B6:0828
   176 15B6:0853   177 15B6:086A   178 15B6:0876   179 15B6:088B
   180 15B6:08A3   181 15B6:08B5   183 15B6:08C7   184 15B6:08D8
   185 15B6:090B   187 15B6:092C   189 15B6:0938   190 15B6:093B
   191 15B6:094B   192 15B6:096E   193 15B6:09A4   195 15B6:09A6
   198 15B6:09AC   199 15B6:09B3   201 15B6:09F2   202 15B6:09F9
   204 15B6:0A1D   205 15B6:0A24   207 15B6:0A4A   209 15B6:0A59
   210 15B6:0A72   212 15B6:0A83   215 15B6:0A87   221 15B6:0A8D
   223 15B6:0A9C   224 15B6:0AB5   226 15B6:0AC6   227 15B6:0AD0
   228 15B6:0ADA   229 15B6:0AE4   231 15B6:0AEC   232 15B6:0AF4
   234 15B6:0B11   235 15B6:0B17   236 15B6:0B1D   237 15B6:0B35
   238 15B6:0B52   240 15B6:0B6C   241 15B6:0B8B   242 15B6:0BA6
   244 15B6:0BAE   245 15B6:0BB3   239 15B6:0BBB   248 15B6:0BD5
   249 15B6:0BED   250 15B6:0BF3   252 15B6:0BFA   253 15B6:0C01
   255 15B6:0C32   257 15B6:0C47   258 15B6:0C51   259 15B6:0C81
   261 15B6:0C9B   262 15B6:0CB4   263 15B6:0CC0   265 15B6:0D02
   267 15B6:0D2F   268 15B6:0D34   270 15B6:0D38   272 15B6:0D3B
   273 15B6:0D63   274 15B6:0D8B   275 15B6:0DB3   276 15B6:0DDB
   277 15B6:0E03   279 15B6:0E2B   280 15B6:0E52   282 15B6:0E79
   283 15B6:0EA1   284 15B6:0EC9   286 15B6:0ECB   290 15B6:0ECE
   292 15B6:0ED9   293 15B6:0EE7   294 15B6:0EF5   295 15B6:0EF5
   296 15B6:0F30   298 15B6:0F34   299 15B6:0F43   302 15B6:0F45
   303 15B6:0F54   304 15B6:0F63   308 15B6:0F72   310 15B6:0F97
   311 15B6:0FA5   312 15B6:0FB3   313 15B6:0FB3   314 15B6:0FF6
   316 15B6:0FFA   317 15B6:1009   320 15B6:100B   321 15B6:101A
   322 15B6:1029   325 15B6:1038   326 15B6:1038   327 15B6:107C
   329 15B6:1080   331 15B6:108F   332 15B6:1096   334 15B6:109A
   336 15B6:10A9   338 15B6:10B3   340 15B6:10B5   342 15B6:10B8
   343 15B6:10C6   344 15B6:10D4   345 15B6:10E2   346 15B6:10F0
   347 15B6:10FE   348 15B6:110C   349 15B6:111A   350 15B6:1128
   351 15B6:1136   352 15B6:1144   354 15B6:1146   356 15B6:1149
   357 15B6:1153   358 15B6:115D   359 15B6:1167   360 15B6:1171
   361 15B6:117B   362 15B6:1185   363 15B6:118F   364 15B6:1199
   365 15B6:11A3   366 15B6:11AD   367 15B6:11B7   370 15B6:11B9
   374 15B6:11BF   375 15B6:11CA   376 15B6:11F5   377 15B6:11FC
   380 15B6:1202   381 15B6:1213   382 15B6:122B   383 15B6:123C
   385 15B6:1248   386 15B6:1262   387 15B6:126C   388 15B6:1270
   391 15B6:1274   393 15B6:127A   395 15B6:1284   396 15B6:129A
   397 15B6:12C5   399 15B6:12D0   400 15B6:12E0   403 15B6:12E4
   404 15B6:12F5   405 15B6:1306   406 15B6:1321   407 15B6:1332
   408 15B6:133E   410 15B6:134D   411 15B6:137E   412 15B6:1391
   415 15B6:1395   417 15B6:1398   418 15B6:13A3   419 15B6:13AE
   420 15B6:13B9   421 15B6:13C4   422 15B6:13CF   423 15B6:13DA
   428 15B6:13DC   431 15B6:13E2   432 15B6:13EF   433 15B6:13FC
   436 15B6:140F   438 15B6:1418   439 15B6:1418   440 15B6:1450
   442 15B6:1460   443 15B6:147E   444 15B6:148B   445 15B6:1498
   446 15B6:14A5   447 15B6:14A7   449 15B6:14B5   451 15B6:14BB
   452 15B6:14C7   453 15B6:14D4   454 15B6:14E1   434 15B6:14EE
   458 15B6:1506   459 15B6:1516   460 15B6:151A   463 15B6:151E
   465 15B6:1524   466 15B6:1530   467 15B6:1543   469 15B6:1550
   470 15B6:155D   471 15B6:156D   473 15B6:157A   472 15B6:15B8
   474 15B6:15E8   475 15B6:15FD   476 15B6:160D   477 15B6:1621
   478 15B6:1660   479 15B6:1670   481 15B6:1674   483 15B6:167A
   484 15B6:1685   485 15B6:1691   487 15B6:169D   488 15B6:16B2
   490 15B6:16BB   492 15B6:16E1   494 15B6:16F3   496 15B6:1703
   498 15B6:1710   499 15B6:1733   500 15B6:1736   501 15B6:1750
   503 15B6:1785   504 15B6:17BD   505 15B6:17DD   506 15B6:17F4
   507 15B6:1800   509 15B6:1808   510 15B6:1835   514 15B6:1866
   518 15B6:1869   523 15B6:1889   524 15B6:1889   526 15B6:18C4
   527 15B6:18D1   528 15B6:18EE   531 15B6:18FB   532 15B6:1908
   537 15B6:190B   538 15B6:190B   540 15B6:194E   541 15B6:195B
   542 15B6:1978   546 15B6:1985   547 15B6:1992   549 15B6:1995
   550 15B6:19A2   551 15B6:19B2   552 15B6:19C6   553 15B6:19D8
   554 15B6:19F7   555 15B6:19F9   557 15B6:1A0B   559 15B6:1A0D
   560 15B6:1A19   562 15B6:1A1F   563 15B6:1A2B   564 15B6:1A37
   565 15B6:1A3D   568 15B6:1A4B   569 15B6:1A51   571 15B6:1A85
   573 15B6:1A8B   575 15B6:1A96   577 15B6:1AA5   578 15B6:1AB4
   579 15B6:1AE5   581 15B6:1AF8   582 15B6:1B04   584 15B6:1B08
   586 15B6:1B0E   588 15B6:1B33   590 15B6:1B43   592 15B6:1B52
   593 15B6:1B61   594 15B6:1B92   596 15B6:1BA5   598 15B6:1BB1
   600 15B6:1BB5   602 15B6:1BBB   603 15B6:1BC6   604 15B6:1BC9
   605 15B6:1BDB   607 15B6:1BED   609 15B6:1BF7   611 15B6:1C06
   612 15B6:1C15   613 15B6:1C46   615 15B6:1C59   616 15B6:1C65
   618 15B6:1C69   620 15B6:1C6F   622 15B6:1C97   624 15B6:1CA7
   625 15B6:1CDC   626 15B6:1CE4   627 15B6:1D08   628 15B6:1D18
   629 15B6:1D57   631 15B6:1D67   633 15B6:1D6B   635 15B6:1D71
   637 15B6:1D7F   638 15B6:1D8F   639 15B6:1DC1   640 15B6:1DDB
   641 15B6:1DEB   642 15B6:1E2A   644 15B6:1E3A   646 15B6:1E3E
   648 15B6:1E45   649 15B6:1E55   650 15B6:1E55   652 15B6:1E90
   653 15B6:1EAD   654 15B6:1ECA   655 15B6:1EDA   657 15B6:1EDE
   659 15B6:1EE4   660 15B6:1EF4   661 15B6:1F04   663 15B6:1F14
   665 15B6:1F2B   666 15B6:1F38   667 15B6:1F48   669 15B6:1F4B
   671 15B6:1F58   672 15B6:1F7B   673 15B6:1F7E   674 15B6:1F8C
   675 15B6:1F8F   676 15B6:1FA9   677 15B6:1FDE   678 15B6:1FE5
   679 15B6:203E   680 15B6:2048   683 15B6:20A8   684 15B6:20B8
   685 15B6:20C5   687 15B6:20C9   689 15B6:20CF   690 15B6:20DE
   691 15B6:20E1   692 15B6:20F1   693 15B6:2101   695 15B6:2113
   696 15B6:2136   697 15B6:2139   698 15B6:215D   699 15B6:219C
   700 15B6:21A3   701 15B6:21FC   702 15B6:2206   703 15B6:2238
   705 15B6:2281   706 15B6:2291   707 15B6:229E   709 15B6:22A2
   712 15B6:22A9   713 15B6:22AE   714 15B6:22D2   716 15B6:22E9
   717 15B6:230B   720 15B6:2327   721 15B6:2331   724 15B6:2343
   725 15B6:2348   726 15B6:234F   727 15B6:2372   730 15B6:238B
   731 15B6:2391   732 15B6:2396   733 15B6:23BC   734 15B6:23E2
   736 15B6:2403   737 15B6:2417   738 15B6:242B   740 15B6:243D
   741 15B6:245A   742 15B6:2470   743 15B6:2481   744 15B6:249A
   745 15B6:24B7   746 15B6:24CC   748 15B6:24DE   749 15B6:24F0
   750 15B6:2512   751 15B6:2529   753 15B6:253D   757 15B6:254D
   758 15B6:2553   759 15B6:2581   760 15B6:2588   762 15B6:25AE
   763 15B6:25CC   764 15B6:25E9   766 15B6:25ED   769 15B6:25F4
   770 15B6:25F9   771 15B6:261C   773 15B6:2633   774 15B6:2655
   777 15B6:2671   778 15B6:267B   781 15B6:268D   782 15B6:2692
   783 15B6:2699   784 15B6:26BB   787 15B6:26D4   788 15B6:26DA
   789 15B6:26DF   790 15B6:2705   791 15B6:272B   793 15B6:274C
   794 15B6:2760   795 15B6:2774   797 15B6:2786   798 15B6:27A3
   799 15B6:27B9   800 15B6:27CA   801 15B6:27E3   802 15B6:27FF
   803 15B6:2814   805 15B6:2826   806 15B6:2838   807 15B6:285A
   808 15B6:2871   810 15B6:2885   814 15B6:2895   815 15B6:289B
   816 15B6:28C8   817 15B6:28CF   819 15B6:28F4   820 15B6:2912
   821 15B6:292F   823 15B6:2933   825 15B6:2939   826 15B6:2948
   827 15B6:294B   828 15B6:295B   829 15B6:296B   831 15B6:297D
   832 15B6:29A0   833 15B6:29A3   834 15B6:29C7   835 15B6:2A06
   836 15B6:2A0D   837 15B6:2A66   838 15B6:2A70   839 15B6:2AA2
   841 15B6:2AEB   842 15B6:2AFB   843 15B6:2B08   846 15B6:2B0C
   848 15B6:2B12   849 15B6:2B22   850 15B6:2B31   851 15B6:2B44
   852 15B6:2B5D   853 15B6:2B7A   854 15B6:2B8C   855 15B6:2B9E
   856 15B6:2BBE   857 15B6:2BCE   859 15B6:2BD2   861 15B6:2BD8
   862 15B6:2BD8   863 15B6:2BF9   864 15B6:2BFC   865 15B6:2C0E
   866 15B6:2C2A   867 15B6:2C40   868 15B6:2C60   869 15B6:2C72
   870 15B6:2C84   872 15B6:2C92   873 15B6:2CA2   874 15B6:2CB6
   875 15B6:2CCA   876 15B6:2CDE   878 15B6:2CEE   928 15B6:2CF2
   929 15B6:2CF5   930 15B6:2D19   931 15B6:2D30   933 15B6:2D3A
   935 15B6:2D3D   936 15B6:2D54   938 15B6:2D56   939 15B6:2D59
   940 15B6:2D69   941 15B6:2D89   943 15B6:2D8B   946 15B6:2D91
   951 15B6:2D99   953 15B6:2DB2   955 15B6:2DBA   956 15B6:2DDF
   957 15B6:2E04   959 15B6:2E39   960 15B6:2E40   963 15B6:2E54
   965 15B6:2E61   967 15B6:2E68   968 15B6:2E8D   969 15B6:2EB2
   971 15B6:2EE7   972 15B6:2F00   973 15B6:2F19   974 15B6:2F32
   978 15B6:2F34   979 15B6:2F3B   980 15B6:2F54   981 15B6:2F6D
   983 15B6:2F86   987 15B6:2F8A   990 15B6:2F90   991 15B6:2FA0
   993 15B6:2FB2   994 15B6:2FBC   995 15B6:2FC6   996 15B6:2FD5
   999 15B6:2FDF  1000 15B6:2FF8  1001 15B6:3002  1006 15B6:300E
  1010 15B6:3011  1011 15B6:3016  1012 15B6:301B  1013 15B6:302A
  1014 15B6:303B  1016 15B6:3042  1017 15B6:304D  1019 15B6:3052
  1020 15B6:3057  1021 15B6:305B  1025 15B6:305D  1029 15B6:3063
  1032 15B6:30B6  1033 15B6:30BB  1034 15B6:3109  1036 15B6:3114
  1037 15B6:311D  1038 15B6:3121
    19 15B6:3125
   248 15B6:3161   249 15B6:3199
   267 15B6:31C1
    99 15B6:31FB
   101 15B6:3244
   130 15B6:328D
   250 15B6:32A7   251 15B6:32AA
   105 15B6:32D6
   107 15B6:32F1
   127 15B6:3301
   132 15B6:3311
   134 15B6:332B   135 15B6:332E
    20 15B6:3351
    22 15B6:3366
    14 15B6:33AA
    13 15B6:33F9
   103 15B6:3449
    16 15B6:3462
    17 15B6:348A
Line numbers for HALFRW.OBJ(HALFRW.C) segment HALFRW_TEXT

     4 1902:0001     9 1902:0004    11 1902:000C    12 1902:0025
    15 1902:002A    17 1902:0034    18 1902:0044    19 1902:0051
    21 1902:0053    23 1902:0062    25 1902:007A    26 1902:007F
    29 1902:0081    34 1902:0087    36 1902:008C    38 1902:0096
    39 1902:00A0    40 1902:00B4    41 1902:00C1    42 1902:00C8
    45 1902:00CA    46 1902:00E4    47 1902:00ED    48 1902:00F6
    49 1902:00FC    52 1902:0110    53 1902:0128    54 1902:012D
    56 1902:0131    60 1902:0137    62 1902:013C    63 1902:0156
    64 1902:015B    67 1902:0177    69 1902:0189    71 1902:018D
    74 1902:0193    76 1902:0198    77 1902:01B5    78 1902:01BA
    79 1902:01D6    82 1902:01DA
    33 1902:01DE
    65 1902:01EA
Line numbers for HELP.OBJ(HELP.C) segment HELP_TEXT

    31 1921:0006    39 1921:000C    41 1921:0016    42 1921:001C
    43 1921:0022    44 1921:0028    45 1921:002E    46 1921:0034
    47 1921:003A    48 1921:0040    49 1921:0046    50 1921:004C
    51 1921:0052    52 1921:0058    53 1921:005E    54 1921:0064
    55 1921:006A    56 1921:008D    58 1921:00A8    59 1921:00BB
    62 1921:00CD    63 1921:00E7    65 1921:00F0    66 1921:0108
    69 1921:010E    70 1921:0123    72 1921:012C    73 1921:0144
    74 1921:0153    78 1921:0161    82 1921:018A    83 1921:01A9
    84 1921:01B4    86 1921:01BA    87 1921:01E7    88 1921:01F4
    89 1921:020B    91 1921:0225    95 1921:023C    96 1921:0241
    98 1921:0245   100 1921:0248   101 1921:0257   102 1921:0266
   103 1921:0272   105 1921:0274   107 1921:027A   110 1921:0289
   111 1921:0295   113 1921:029E   114 1921:029E   115 1921:02C7
   117 1921:02CF   118 1921:02E7   122 1921:02EA   123 1921:02EF
   126 1921:030D   127 1921:0313   128 1921:031C   131 1921:0329
   132 1921:032E   133 1921:0343   134 1921:0348   137 1921:0368
   138 1921:0372   139 1921:037F   143 1921:0392   144 1921:039C
   145 1921:03A9   146 1921:03BC   147 1921:03C9   150 1921:03CC
   151 1921:03D6   153 1921:03DD   154 1921:03F3   156 1921:0412
   157 1921:0418   158 1921:042C   159 1921:0440   165 1921:0448
   166 1921:0452   167 1921:045E   168 1921:0463   169 1921:0466
   172 1921:0469   173 1921:0473   174 1921:047C   175 1921:0481
   176 1921:0484   178 1921:0487   180 1921:04A5   181 1921:04A5
   182 1921:04CD   183 1921:04CD   184 1921:04EF   185 1921:04EF
   186 1921:0517   187 1921:0517   189 1921:053D   190 1921:0544
   191 1921:0544   192 1921:0590   193 1921:05A5   196 1921:05A7
   197 1921:05BC   199 1921:05C3   200 1921:05D9   202 1921:05F8
   203 1921:05FE   204 1921:060D   205 1921:0612   206 1921:0617
   208 1921:061A   210 1921:061C   213 1921:061F   215 1921:0626
   216 1921:063C   218 1921:065B   219 1921:0661   220 1921:067A
   221 1921:0687   222 1921:068C   225 1921:06B8   230 1921:06BE
   231 1921:06DF   233 1921:06FC   235 1921:0705   238 1921:072C
   239 1921:074A   241 1921:0773   242 1921:079D   243 1921:079D
   245 1921:07EC   246 1921:0803   247 1921:0817   249 1921:0817
   250 1921:0839   251 1921:083B   254 1921:083D   255 1921:085F
   256 1921:086E   259 1921:0875   262 1921:0879   266 1921:087F
   267 1921:087F   268 1921:089F   269 1921:089F   270 1921:08C7
   271 1921:08CE   273 1921:08CE   274 1921:0914   276 1921:091A
   278 1921:091A   279 1921:0957   280 1921:0957   282 1921:0982
   284 1921:098B   286 1921:098B   287 1921:09C1   288 1921:09C1
   290 1921:09EC   292 1921:09EC   293 1921:0A26   294 1921:0A26
   295 1921:0A51   296 1921:0A51   297 1921:0A7B   298 1921:0A9B
   301 1921:0A9F   306 1921:0AA5   307 1921:0AB0   309 1921:0AB8
   311 1921:0ACA   312 1921:0AE6   313 1921:0AEB   314 1921:0AEE
   316 1921:0AFD   317 1921:0B19   318 1921:0B38   319 1921:0B65
   320 1921:0BA5   321 1921:0BBB   322 1921:0BBD   324 1921:0BE9
   325 1921:0C01   326 1921:0C18   329 1921:0C1C   333 1921:0C22
   334 1921:0C29   335 1921:0C40   336 1921:0C5F   337 1921:0C70
   339 1921:0C82   340 1921:0C82   341 1921:0CA4   342 1921:0CB8
   344 1921:0CB8   345 1921:0CEF   347 1921:0D07   348 1921:0D07
   349 1921:0D4C   350 1921:0D4C   351 1921:0D6F   352 1921:0D86
   353 1921:0DB5   354 1921:0DC7   355 1921:0DCB   357 1921:0DCF
   361 1921:0DD5   362 1921:0DE7   363 1921:0DF8   365 1921:0DF8
   366 1921:0E3F   367 1921:0E50   368 1921:0E50   369 1921:0E84
   375 1921:0E88   379 1921:0E8E   380 1921:0E95   382 1921:0EA3
   383 1921:0EC6   384 1921:0ECC   386 1921:0ED7   389 1921:0EFB
Line numbers for LISTDIR.OBJ(LISTDIR.C) segment LISTDIR_TEXT

    36 1A10:000F    41 1A10:0015    43 1A10:001F    45 1A10:002D
    46 1A10:0032    47 1A10:004D    48 1A10:007A    50 1A10:00A7
    51 1A10:00AE    52 1A10:00AE    55 1A10:00E9    56 1A10:00EE
    57 1A10:0103    58 1A10:0108    61 1A10:0128    62 1A10:0131
    64 1A10:0139    65 1A10:013C    66 1A10:013C    67 1A10:016E
    68 1A10:016E    69 1A10:019E    72 1A10:01A0    73 1A10:01CB
    74 1A10:01CE    75 1A10:01D1    76 1A10:01D8    77 1A10:01D8
    79 1A10:0213    81 1A10:0216    82 1A10:0222    84 1A10:022E
    85 1A10:0231    86 1A10:0231    87 1A10:0263    88 1A10:0263
    89 1A10:0293    92 1A10:0295    93 1A10:02C0    94 1A10:02C3
    95 1A10:02C6    96 1A10:02CD    97 1A10:02CD    99 1A10:0308
   101 1A10:030B   102 1A10:0314   103 1A10:0329   104 1A10:032F
   105 1A10:035A   106 1A10:0361   107 1A10:0361   108 1A10:039C
   110 1A10:039F   111 1A10:03AD   112 1A10:03CE   113 1A10:03ED
   114 1A10:0418   115 1A10:041F   116 1A10:041F   117 1A10:045A
   119 1A10:045D   120 1A10:0462   121 1A10:0467   122 1A10:0492
   123 1A10:0499   124 1A10:0499   125 1A10:04D4   127 1A10:04D7
   128 1A10:04EC   129 1A10:04F3   130 1A10:051E   131 1A10:0525
   132 1A10:0525   133 1A10:0560   134 1A10:0563   135 1A10:0569
   138 1A10:0579   139 1A10:057F   141 1A10:0584   142 1A10:05A4
   143 1A10:05B4   144 1A10:05BC   145 1A10:05C7   146 1A10:05C7
   147 1A10:05F8   148 1A10:05FE   149 1A10:05FE   150 1A10:062F
   155 1A10:0631   156 1A10:0633   158 1A10:0635   159 1A10:0638
   162 1A10:0668   167 1A10:066B   168 1A10:066B   169 1A10:06A4
   172 1A10:06A6   175 1A10:06A9   176 1A10:06AF   177 1A10:06B5
   178 1A10:06BB   179 1A10:06C1   180 1A10:06C7   181 1A10:06CD
   182 1A10:06D3   183 1A10:06D9   186 1A10:06DB   190 1A10:06E1
   193 1A10:06E1   194 1A10:071C   195 1A10:0720   196 1A10:072E
   197 1A10:073D   198 1A10:074B   199 1A10:0750   202 1A10:0754
   207 1A10:075A   211 1A10:0769   212 1A10:0788   213 1A10:07A7
   214 1A10:07D1   215 1A10:07E4   216 1A10:0813   218 1A10:083B
   219 1A10:084F   220 1A10:086A   221 1A10:08A3   222 1A10:08DC
   223 1A10:0915   224 1A10:094E   225 1A10:0987   226 1A10:09C0
   227 1A10:09F9   228 1A10:09FE   229 1A10:0A29   230 1A10:0A55
   231 1A10:0A81   232 1A10:0AAD   233 1A10:0AD9   234 1A10:0B05
   237 1A10:0B31   238 1A10:0B60   240 1A10:0B6C   241 1A10:0B89
   243 1A10:0B8F   244 1A10:0BA8   248 1A10:0BAA   249 1A10:0BB4
   250 1A10:0BBE   251 1A10:0BC8   252 1A10:0BD2   253 1A10:0BDC
   254 1A10:0BE6   256 1A10:0BF0   258 1A10:0BF6   259 1A10:0C0D
   260 1A10:0C1A   262 1A10:0C1C   263 1A10:0C48   264 1A10:0C4D
   267 1A10:0C51   271 1A10:0C57   273 1A10:0C72   274 1A10:0C93
   275 1A10:0CCA   276 1A10:0CD8   277 1A10:0CE6   278 1A10:0CF4
   280 1A10:0D16   283 1A10:0D1A   286 1A10:0D20   287 1A10:0D33
   288 1A10:0D42   289 1A10:0D42   290 1A10:0D8A   291 1A10:0DA1
   294 1A10:0DA5   306 1A10:0DAC   307 1A10:0DC0   309 1A10:0DE0
   312 1A10:0E15   313 1A10:0E34   314 1A10:0E56   316 1A10:0E5C
   317 1A10:0E7C   318 1A10:0E81   319 1A10:0E83   321 1A10:0E89
   322 1A10:0EA9   323 1A10:0EAE   326 1A10:0EB1   327 1A10:0EC1
   335 1A10:0EF4   337 1A10:0EF4   339 1A10:0F58   346 1A10:0F74
   347 1A10:0F83   349 1A10:0F8E   351 1A10:0FB3   352 1A10:0FD4
   353 1A10:0FDE   355 1A10:0FE1   356 1A10:100D   357 1A10:102F
   358 1A10:1032   361 1A10:1034   362 1A10:1048   363 1A10:1074
   367 1A10:1096   368 1A10:10A3   369 1A10:10A8   372 1A10:10AC
   375 1A10:10B3   378 1A10:10B8   379 1A10:10C0   381 1A10:10CC
   382 1A10:10D4   384 1A10:10E7   385 1A10:1109   386 1A10:1137
   387 1A10:115E   388 1A10:1177   389 1A10:118C   390 1A10:11A1
   392 1A10:11B2   394 1A10:11BB   395 1A10:11CB   398 1A10:11FE
   400 1A10:11FE   402 1A10:1263   404 1A10:127F   406 1A10:12A5
   407 1A10:12D2   408 1A10:12D7   410 1A10:12DB   413 1A10:12E1
   414 1A10:1300   415 1A10:130B   416 1A10:1314   417 1A10:133F
   418 1A10:1354   420 1A10:1358   423 1A10:135F   427 1A10:1364
   429 1A10:136D   430 1A10:1380   431 1A10:13AB   432 1A10:13AD
   433 1A10:13B1   434 1A10:13C4   435 1A10:13CF   436 1A10:13E8
   437 1A10:13F4   438 1A10:13F4   439 1A10:1424   443 1A10:1445
   444 1A10:1454   445 1A10:145C   446 1A10:146A   447 1A10:1478
   448 1A10:14AF   450 1A10:14BE   453 1A10:14C2   455 1A10:14C5
   456 1A10:14CA   457 1A10:14FB   458 1A10:151F   459 1A10:154D
   460 1A10:157B   461 1A10:1580   464 1A10:1582   466 1A10:1585
   467 1A10:158C   469 1A10:159B   470 1A10:15A3   471 1A10:15AA
   472 1A10:15B1   473 1A10:15B8   474 1A10:15BF   475 1A10:15C6
   476 1A10:15CD   477 1A10:15D4   478 1A10:15DB   479 1A10:15E2
   480 1A10:15E9   482 1A10:15EB   484 1A10:15FA   485 1A10:1601
   486 1A10:1608   487 1A10:160F   488 1A10:1616   489 1A10:161D
   490 1A10:1625   491 1A10:162D   492 1A10:1635   493 1A10:163D
   494 1A10:1645   496 1A10:164D
Line numbers for PCX.OBJ(PCX.C) segment PCX_TEXT

    44 1B77:0007    47 1B77:000D    48 1B77:0011    49 1B77:0015
    50 1B77:002B    52 1B77:002F    54 1B77:003A    56 1B77:003D
    57 1B77:004A    58 1B77:0056    59 1B77:0067    61 1B77:0069
    63 1B77:006C    64 1B77:0078    65 1B77:0084    66 1B77:0090
    69 1B77:0092    74 1B77:0098    75 1B77:00A6    77 1B77:00C6
    78 1B77:00D3    79 1B77:00DC    81 1B77:00E3    83 1B77:00E7
    91 1B77:00ED    93 1B77:0112    94 1B77:011E    95 1B77:012A
    97 1B77:012E    98 1B77:0136    99 1B77:013E   100 1B77:014B
   102 1B77:0152   103 1B77:0162   104 1B77:0165   107 1B77:0173
   108 1B77:017F   109 1B77:018B   110 1B77:0194   111 1B77:019C
   112 1B77:01A4   113 1B77:01B1   115 1B77:01B8   116 1B77:01C1
   117 1B77:01C8   118 1B77:01CB   119 1B77:01CE   120 1B77:01D7
   124 1B77:01EF   126 1B77:01F8   127 1B77:0207   128 1B77:0210
   130 1B77:021C   131 1B77:0225   132 1B77:022D   133 1B77:023A
   135 1B77:0241   136 1B77:024A   137 1B77:0251   138 1B77:0254
   139 1B77:0257   140 1B77:0260   145 1B77:0278   147 1B77:027E
   148 1B77:0291   149 1B77:029D   151 1B77:02A6   152 1B77:02AE
   153 1B77:02BB   155 1B77:02C2   156 1B77:02CB   157 1B77:02D2
   158 1B77:02D5   159 1B77:02D8   160 1B77:02E1   165 1B77:02F9
   167 1B77:02FF   168 1B77:0315   169 1B77:0321   171 1B77:032A
   172 1B77:0332   173 1B77:033F   175 1B77:0346   176 1B77:034F
   177 1B77:0356   178 1B77:0359   179 1B77:035C   180 1B77:0365
   183 1B77:037D   184 1B77:0385   185 1B77:038D   186 1B77:0391
   189 1B77:0395   195 1B77:039B   196 1B77:039F   197 1B77:03A3
   198 1B77:03A9   200 1B77:03A9   201 1B77:0415   202 1B77:042B
   205 1B77:042F   208 1B77:0435   210 1B77:043A   211 1B77:0453
   213 1B77:0470   215 1B77:048A   216 1B77:0493   217 1B77:049C
   218 1B77:04A5   220 1B77:04AE   221 1B77:04BB   224 1B77:04BF
   227 1B77:04C5   230 1B77:04CA   231 1B77:04E3   233 1B77:0501
   235 1B77:051B   237 1B77:0522   240 1B77:0522   242 1B77:057B
   243 1B77:0588   246 1B77:058C   249 1B77:0593   253 1B77:0598
   254 1B77:05B1   255 1B77:05CF   256 1B77:05EE   259 1B77:05FA
   261 1B77:0614   262 1B77:0628   264 1B77:063D   265 1B77:0656
   266 1B77:0664   267 1B77:0683   269 1B77:068F   271 1B77:0697
   273 1B77:069F   274 1B77:06AB   276 1B77:06B3   278 1B77:06B9
   279 1B77:06D8   281 1B77:06E4   282 1B77:06F3   284 1B77:0700
   285 1B77:070B   287 1B77:0711   288 1B77:0730   290 1B77:073C
   291 1B77:074B   292 1B77:074D   293 1B77:0758   296 1B77:078D
   297 1B77:0798   300 1B77:07C0   301 1B77:07C8   302 1B77:07D0
   304 1B77:07D4   305 1B77:07E1   306 1B77:07EE   307 1B77:07FB
   311 1B77:07FF   337 1B77:0805   338 1B77:0825   341 1B77:082D
   342 1B77:0841   343 1B77:0885   344 1B77:08D6   345 1B77:092A
   348 1B77:0990   351 1B77:0994   355 1B77:099A   369 1B77:099F
   370 1B77:09B8   372 1B77:09DE   373 1B77:09E3   374 1B77:09E8
   375 1B77:09ED   376 1B77:09F2   377 1B77:09F8   378 1B77:09FE
   379 1B77:0A04   380 1B77:0A0A   381 1B77:0A10   382 1B77:0A16
   383 1B77:0A1B   384 1B77:0A20   385 1B77:0A26   387 1B77:0A2C
   388 1B77:0A49   390 1B77:0A64   391 1B77:0A78   392 1B77:0A98
   393 1B77:0AAC   395 1B77:0ACC   397 1B77:0AD4   398 1B77:0AE0
   400 1B77:0AEC   402 1B77:0B03   404 1B77:0B31   405 1B77:0B3D
   406 1B77:0B49   407 1B77:0B4E   411 1B77:0B53   412 1B77:0B5C
   413 1B77:0B68   414 1B77:0B6C   418 1B77:0B71   419 1B77:0B74
   420 1B77:0B77   421 1B77:0B7A   422 1B77:0B82   416 1B77:0B8A
   425 1B77:0B9B   427 1B77:0BA1   428 1B77:0BAF   429 1B77:0BBB
   430 1B77:0BBF   431 1B77:0BC1   433 1B77:0BC7   434 1B77:0BD3
   435 1B77:0BD6   438 1B77:0BD8   439 1B77:0BE2   440 1B77:0BEE
   443 1B77:0BF5   444 1B77:0C13   446 1B77:0C1B   447 1B77:0C34
   448 1B77:0C41   454 1B77:0C5E   455 1B77:0C6B   456 1B77:0C78
   457 1B77:0C85   458 1B77:0C8A
Line numbers for PROTECT.OBJ(PROTECT.C) segment PROTECT_TEXT

    40 1C3F:000E    45 1C3F:0015    47 1C3F:0015    51 1C3F:0027
    53 1C3F:002F    54 1C3F:0055    56 1C3F:0070    57 1C3F:0079
    58 1C3F:0082    60 1C3F:0086    61 1C3F:009E    63 1C3F:00B9
    68 1C3F:00CF    69 1C3F:00D4    72 1C3F:00D8    76 1C3F:00DF
    78 1C3F:00DF    82 1C3F:00F1    84 1C3F:00F7    85 1C3F:010F
    86 1C3F:0136    89 1C3F:0138    90 1C3F:015E    92 1C3F:0183
    93 1C3F:0188    96 1C3F:018C   103 1C3F:0192   104 1C3F:01A6
   106 1C3F:01C0   107 1C3F:01D5   109 1C3F:01DB   113 1C3F:01F0
   114 1C3F:0208   115 1C3F:0218   117 1C3F:0221   118 1C3F:0231
   120 1C3F:0241   121 1C3F:0256   123 1C3F:025C   124 1C3F:0268
   127 1C3F:0276   128 1C3F:028E   129 1C3F:029E   132 1C3F:02A7
   133 1C3F:02B4   134 1C3F:02B9   137 1C3F:02BD   143 1C3F:02C3
   144 1C3F:02D7   146 1C3F:02F1   147 1C3F:0306   149 1C3F:030C
   150 1C3F:031F   153 1C3F:032C   154 1C3F:0344   155 1C3F:0350
   157 1C3F:0359   158 1C3F:036C   160 1C3F:037F   161 1C3F:038C
   162 1C3F:0391   165 1C3F:0395   169 1C3F:039B   170 1C3F:03AC
   171 1C3F:03BA   172 1C3F:03BA   173 1C3F:03D9   175 1C3F:03DD
   178 1C3F:03E4   180 1C3F:03F6   182 1C3F:0400   183 1C3F:0406
   184 1C3F:0420   185 1C3F:0447   187 1C3F:0451   190 1C3F:0488
   192 1C3F:048C   196 1C3F:0492   197 1C3F:04A6   199 1C3F:04BF
   201 1C3F:04DA   202 1C3F:04E7   203 1C3F:04F4   206 1C3F:04F8
   210 1C3F:04FE   211 1C3F:0512   213 1C3F:052B   214 1C3F:0546
   215 1C3F:0552   217 1C3F:056D   218 1C3F:057A   219 1C3F:057E
   222 1C3F:0582   227 1C3F:0588   228 1C3F:0590   229 1C3F:05BF
   230 1C3F:05F7   232 1C3F:05FD   233 1C3F:0623   236 1C3F:0625
   238 1C3F:064D   241 1C3F:0651   243 1C3F:0654   244 1C3F:0666
   245 1C3F:0679
Line numbers for TEXTSCR.OBJ(TEXTSCR.C) segment TEXTSCR_TEXT

    13 1CA6:000B    15 1CA6:000E    16 1CA6:002D    17 1CA6:0036
    18 1CA6:0040    19 1CA6:004A    20 1CA6:0054    21 1CA6:005E
    23 1CA6:0068    24 1CA6:0071    25 1CA6:0089    26 1CA6:009D
    28 1CA6:00A6    29 1CA6:00B4    30 1CA6:00C2    31 1CA6:00DE
    32 1CA6:00FA    33 1CA6:0116    35 1CA6:013A    36 1CA6:0144
    37 1CA6:014E    38 1CA6:0158    39 1CA6:0162    40 1CA6:016C
    41 1CA6:0176    43 1CA6:0180    46 1CA6:0183    47 1CA6:018D
    48 1CA6:0197    49 1CA6:01A1    50 1CA6:01AB    51 1CA6:01B5
    52 1CA6:01BF    54 1CA6:01C1    56 1CA6:01C4    57 1CA6:01DC
    58 1CA6:01F7    60 1CA6:01F9    63 1CA6:01FF    64 1CA6:0204
    65 1CA6:020A    66 1CA6:0228    69 1CA6:022F    70 1CA6:023F
    71 1CA6:0245    72 1CA6:0256    73 1CA6:026D    74 1CA6:0284
    75 1CA6:029A    76 1CA6:02B0    77 1CA6:02C2    78 1CA6:02D4
    80 1CA6:02DD    81 1CA6:02ED    82 1CA6:0306    83 1CA6:031A
    85 1CA6:0327    86 1CA6:032B    88 1CA6:032F    90 1CA6:0335
    91 1CA6:033A    92 1CA6:0340    93 1CA6:035E    95 1CA6:0365
    96 1CA6:037C    97 1CA6:0393    98 1CA6:03A5    99 1CA6:03B7
   100 1CA6:03D6   102 1CA6:03DA   104 1CA6:03E0   105 1CA6:03E6
   106 1CA6:03EC   107 1CA6:03F2   109 1CA6:03F9   110 1CA6:0410
   111 1CA6:0427   112 1CA6:0439   113 1CA6:044B   114 1CA6:0453
   115 1CA6:046E   117 1CA6:0472   120 1CA6:0478   121 1CA6:047E
   122 1CA6:0484   123 1CA6:048A   125 1CA6:0491   126 1CA6:04A8
   127 1CA6:04BF   128 1CA6:04CB   129 1CA6:04EF   131 1CA6:04F3
   133 1CA6:04F9   134 1CA6:0506   135 1CA6:050D   136 1CA6:052D
   138 1CA6:053A   139 1CA6:0560   141 1CA6:0564   143 1CA6:056A
   144 1CA6:0577   145 1CA6:0586   146 1CA6:05A0   148 1CA6:05AD
   149 1CA6:05CE   153 1CA6:05D2   156 1CA6:05D5   157 1CA6:05D8
   158 1CA6:05DB   161 1CA6:05DC   162 1CA6:05DD   163 1CA6:05E0
   164 1CA6:05E3   165 1CA6:05E4   166 1CA6:05E7   167 1CA6:05EA
   169 1CA6:05EB   171 1CA6:05ED   174 1CA6:05F0   175 1CA6:05F3
   176 1CA6:05F6   178 1CA6:05F7   181 1CA6:05F9   183 1CA6:05FF
   184 1CA6:05FF   185 1CA6:0625   186 1CA6:0625   188 1CA6:064E
   189 1CA6:064E   190 1CA6:0671   193 1CA6:0675   195 1CA6:067B
   196 1CA6:067B   197 1CA6:06A1   198 1CA6:06A1   200 1CA6:06CA
   201 1CA6:06CA   203 1CA6:06ED   206 1CA6:06F1   210 1CA6:06F6
   211 1CA6:06F7   212 1CA6:06F8   213 1CA6:06FB   214 1CA6:06FE
   215 1CA6:0701   216 1CA6:0703   217 1CA6:0705   218 1CA6:0708
   219 1CA6:070B   223 1CA6:070E   224 1CA6:070F   225 1CA6:0712
   226 1CA6:0714   227 1CA6:0716   228 1CA6:0718   229 1CA6:0719
   230 1CA6:071B   231 1CA6:071C   234 1CA6:071D   236 1CA6:0721
   240 1CA6:0726   241 1CA6:0727   242 1CA6:0728   243 1CA6:072B
   244 1CA6:072E   245 1CA6:0731   246 1CA6:0733   247 1CA6:0735
   248 1CA6:0738   249 1CA6:073B   253 1CA6:073E   254 1CA6:073F
   255 1CA6:0742   256 1CA6:0744   257 1CA6:0746   258 1CA6:0748
   259 1CA6:0749   260 1CA6:074B   261 1CA6:074C   264 1CA6:074D
   268 1CA6:0751   270 1CA6:0754   271 1CA6:0770   272 1CA6:077F
   273 1CA6:07A6   274 1CA6:07C4   275 1CA6:07D5   277 1CA6:07DF
   279 1CA6:07E2   280 1CA6:07EF   281 1CA6:0800   282 1CA6:080D
   284 1CA6:080F   286 1CA6:0812   288 1CA6:0840   289 1CA6:086E
   290 1CA6:08A8   291 1CA6:08EA   293 1CA6:092D   294 1CA6:095B
   295 1CA6:0995   296 1CA6:09D7   297 1CA6:0A1A   298 1CA6:0A27
   300 1CA6:0A29   302 1CA6:0A2F   303 1CA6:0A6F   304 1CA6:0AA1
   306 1CA6:0AA5   308 1CA6:0AA8   309 1CA6:0ADA   311 1CA6:0ADC
   313 1CA6:0ADF   315 1CA6:0B0E   316 1CA6:0B1A   317 1CA6:0B29
   319 1CA6:0B30   320 1CA6:0B35   321 1CA6:0B44   322 1CA6:0B53
   324 1CA6:0B5A   326 1CA6:0B61   328 1CA6:0B66   329 1CA6:0B6B
Line numbers for THART.OBJ(THART.C) segment THART_TEXT

     3 1D5C:000D     4 1D5C:0010     5 1D5C:002C     6 1D5C:0033
     7 1D5C:003C    13 1D5C:0046    14 1D5C:004C    15 1D5C:009C
    16 1D5C:00AF    18 1D5C:00C2    19 1D5C:00C9    20 1D5C:00ED
    21 1D5C:00F7    24 1D5C:0103    27 1D5C:0109    28 1D5C:0110
    31 1D5C:014F    32 1D5C:0156    35 1D5C:017A    36 1D5C:0181
    37 1D5C:01A7    39 1D5C:01AB    46 1D5C:01B1    47 1D5C:01CE
    49 1D5C:01D3    51 1D5C:01F0    52 1D5C:01F4    54 1D5C:01F8
    55 1D5C:01FB    57 1D5C:021F    60 1D5C:0221    64 1D5C:0227
    65 1D5C:023A    68 1D5C:0247    69 1D5C:0247    70 1D5C:029A
    71 1D5C:029F    73 1D5C:02AC    74 1D5C:02B0    77 1D5C:02B4
    81 1D5C:02BB    84 1D5C:02CD    85 1D5C:02DA    86 1D5C:02E8
    87 1D5C:0305    89 1D5C:0319    91 1D5C:0321    92 1D5C:034B
    93 1D5C:0363    94 1D5C:037A    98 1D5C:03C1    99 1D5C:03CB
   101 1D5C:03D3   102 1D5C:03ED   104 1D5C:0407   105 1D5C:040E
   106 1D5C:041B   108 1D5C:0422   110 1D5C:0426   111 1D5C:043B
   114 1D5C:045D   115 1D5C:0475   116 1D5C:047A
    34 1D5C:047F    35 1D5C:049A
Line numbers for UTIL.OBJ(UTIL.C) segment UTIL_TEXT

    35 1DA7:0001    37 1DA7:0007    39 1DA7:0011    40 1DA7:002A
    42 1DA7:003C    43 1DA7:0054    45 1DA7:008E    47 1DA7:009A
    48 1DA7:00C4    49 1DA7:00F2    51 1DA7:012D    52 1DA7:0136
    53 1DA7:013B    56 1DA7:013F    58 1DA7:0145    61 1DA7:014F
    62 1DA7:0168    63 1DA7:017A    65 1DA7:0189    66 1DA7:01A1
    68 1DA7:01DB    70 1DA7:01E7    71 1DA7:0211    72 1DA7:023B
    74 1DA7:026D    75 1DA7:0276    76 1DA7:027B    79 1DA7:027F
    84 1DA7:0285    85 1DA7:02AF    86 1DA7:02B3    90 1DA7:02B7
    94 1DA7:02BD    95 1DA7:02CE    96 1DA7:02DA    97 1DA7:02DA
    98 1DA7:02F9   101 1DA7:02FD   106 1DA7:0303   107 1DA7:031D
   108 1DA7:0327   109 1DA7:032D   110 1DA7:0333   111 1DA7:034A
   113 1DA7:0351   115 1DA7:0369   116 1DA7:0380   117 1DA7:0386
   120 1DA7:039F   121 1DA7:03A4   124 1DA7:03A8   126 1DA7:03AE
   129 1DA7:03B3   130 1DA7:03C6   132 1DA7:03D2   133 1DA7:040B
   134 1DA7:0415   136 1DA7:0426   137 1DA7:044C   139 1DA7:0471
   143 1DA7:0475   148 1DA7:047B   149 1DA7:048B   151 1DA7:049B
   153 1DA7:04A2   154 1DA7:04A2   155 1DA7:04F5   156 1DA7:04FD
   159 1DA7:052A   160 1DA7:0534   161 1DA7:0543   162 1DA7:054F
   163 1DA7:0554   167 1DA7:0558   169 1DA7:055B   170 1DA7:058C
   171 1DA7:05BD   172 1DA7:05C2   175 1DA7:05C4   177 1DA7:05C7
   178 1DA7:05DE   179 1DA7:05F4   180 1DA7:060A   181 1DA7:0616
   182 1DA7:061B
Line numbers for UTILRW.OBJ(UTILRW.C) segment UTILRW_TEXT

     6 1E08:000D     9 1E08:0013    14 1E08:001A    16 1E08:0030
    17 1E08:003C    12 1E08:0041    19 1E08:004B    20 1E08:0050
    23 1E08:0054    28 1E08:005A    29 1E08:008A    31 1E08:008E
    32 1E08:009E    33 1E08:00A3    35 1E08:00A7    39 1E08:00AD
    40 1E08:00BA    42 1E08:00BE    43 1E08:00C8    46 1E08:00D1
    49 1E08:00FF    50 1E08:0104    52 1E08:0108    56 1E08:010E
    58 1E08:0113    59 1E08:0130    61 1E08:0134    62 1E08:0140
    65 1E08:0147    67 1E08:0151    69 1E08:0156    71 1E08:015A
    75 1E08:0160    77 1E08:0167    78 1E08:016E    79 1E08:018B
    82 1E08:01A2    84 1E08:01B0    86 1E08:01B5    89 1E08:01B9
    94 1E08:01C0    95 1E08:01C0    96 1E08:0220    98 1E08:0224
    99 1E08:025A   100 1E08:025F   103 1E08:0264   107 1E08:026A
   109 1E08:026E   110 1E08:0274   112 1E08:0286   113 1E08:028B
   114 1E08:028F   115 1E08:0293   116 1E08:0297   117 1E08:029B
   118 1E08:029F   119 1E08:02A3   120 1E08:02A7   121 1E08:02AB
   122 1E08:02AF   123 1E08:02B3   124 1E08:02B7   125 1E08:02BB
   128 1E08:02BF   129 1E08:02C5   131 1E08:02D8   132 1E08:02DC
   133 1E08:02E0   134 1E08:02E4   135 1E08:02E8   136 1E08:02EC
   137 1E08:02F0   138 1E08:02F4   139 1E08:02F8   140 1E08:02FC
   141 1E08:0300   142 1E08:0304   143 1E08:0308   144 1E08:030D
   145 1E08:0312   146 1E08:0317   149 1E08:031C   151 1E08:0322
   152 1E08:0336   153 1E08:033B   154 1E08:034E   155 1E08:035B
   158 1E08:0361   162 1E08:0366   165 1E08:03A6   168 1E08:03AC
   170 1E08:03BE   171 1E08:03C3   172 1E08:03D6   174 1E08:03E5
   175 1E08:03F8   178 1E08:03FD   179 1E08:0410   180 1E08:0423
   183 1E08:0428   186 1E08:0441   187 1E08:044D   188 1E08:0457
   189 1E08:0460   191 1E08:0473   193 1E08:0478   194 1E08:0484
   196 1E08:0498   198 1E08:049C   200 1E08:04A2   201 1E08:04AE
   205 1E08:04BB   206 1E08:04BB   207 1E08:0501   208 1E08:0506
   209 1E08:050E   210 1E08:0512   212 1E08:0516   214 1E08:051D
   215 1E08:0529   219 1E08:0536   220 1E08:0536   221 1E08:057D
   222 1E08:0582   223 1E08:059A   224 1E08:059E   226 1E08:05A2
   228 1E08:05A9   231 1E08:05B6   232 1E08:05D4   233 1E08:05D9
   235 1E08:05F1   236 1E08:05F5   238 1E08:05F9   240 1E08:05FF
   243 1E08:060C   244 1E08:0629   245 1E08:062E   247 1E08:0636
   248 1E08:063A   250 1E08:063E   252 1E08:0644   254 1E08:0650
   255 1E08:0668   256 1E08:066D   258 1E08:0687   260 1E08:068E
   261 1E08:06A5   259 1E08:06AA   262 1E08:06B1   263 1E08:06B5
   265 1E08:06B9   267 1E08:06BF   270 1E08:06CB   271 1E08:06CB
   272 1E08:0712   273 1E08:0717   274 1E08:071B   276 1E08:071F
   281 1E08:0727   283 1E08:0734   285 1E08:073C   286 1E08:0758
   287 1E08:075B   288 1E08:0772   289 1E08:079A   290 1E08:07B4
   292 1E08:07E6   293 1E08:07EF   294 1E08:07F3   296 1E08:07F8
   301 1E08:0800   303 1E08:080D   305 1E08:0815   306 1E08:0831
   307 1E08:0834   308 1E08:084B   309 1E08:0873   310 1E08:088D
   312 1E08:08BF   313 1E08:08C8   314 1E08:08CC   317 1E08:08D1
   321 1E08:08D9   323 1E08:08E1   324 1E08:0902   325 1E08:0919
   326 1E08:0941   327 1E08:095B   329 1E08:098B   330 1E08:0994
   331 1E08:0998   334 1E08:099D   337 1E08:09A5   343 1E08:09B2
   344 1E08:09C9   345 1E08:09CF   346 1E08:09E7   347 1E08:09E9
   349 1E08:09F0   351 1E08:0A11   354 1E08:0A2F   356 1E08:0A3A
   357 1E08:0A47   358 1E08:0A4F   359 1E08:0A57   361 1E08:0A6A
   362 1E08:0A81   363 1E08:0AA9   364 1E08:0AC4   365 1E08:0AE5
   368 1E08:0B26   369 1E08:0B2F   370 1E08:0B34
Program entry point at 0000:0000

